product-id	variant-id	title	brand	product-type	price	sku	barcode	weight	weight-unit	option01	option02	option03	product-url	image-url	alt-image-url	description
5010330255462	39426922840166	Army Quilted Blazer Beige	Trois Point	Jacket	52.00	TPARJABE01		113.0	g	[Size,XS]	[Color,Beige]		http://www.myStore.com/products/	https://cdn.shopify.com/s/files/1/1137/7574/products/Screenshot2021-01-22at13.19.34_aefde442-7542-48bf-8e11-485445e08cf7.png	https://cdn.shopify.com/s/files/1/1137/7574/products/Screenshot2021-01-22at13.19.44.png|https://cdn.shopify.com/s/files/1/1137/7574/products/Screenshot2021-01-22at13.19.53.png|https://cdn.shopify.com/s/files/1/1137/7574/products/Screenshot2021-01-22at13.20.03.png|https://cdn.shopify.com/s/files/1/1137/7574/products/Screenshot2021-01-22at13.20.13.png	Looking for the perfect light layer for your pup? You've found it in the Army Quilted Blazer by Trois Point. <ul> <li>Long sleeves <br> </li> <li>Button closure</li> <li>Shell: 100% poly <br> </li> <li>Lining: 100% poly (sleeve) 100% cotton (body)</li> <li>Light hand wash or dry clean</li> </ul>	
5010330255462	32287125536870	Army Quilted Blazer Beige	Trois Point	Jacket	52.00	TPARJABE02		113.0	g	[Size,S]	[Color,Beige]		http://www.myStore.com/products/	https://cdn.shopify.com/s/files/1/1137/7574/products/Screenshot2021-01-22at13.19.34_aefde442-7542-48bf-8e11-485445e08cf7.png	https://cdn.shopify.com/s/files/1/1137/7574/products/Screenshot2021-01-22at13.19.44.png|https://cdn.shopify.com/s/files/1/1137/7574/products/Screenshot2021-01-22at13.19.53.png|https://cdn.shopify.com/s/files/1/1137/7574/products/Screenshot2021-01-22at13.20.03.png|https://cdn.shopify.com/s/files/1/1137/7574/products/Screenshot2021-01-22at13.20.13.png	Looking for the perfect light layer for your pup? You've found it in the Army Quilted Blazer by Trois Point. <ul> <li>Long sleeves <br> </li> <li>Button closure</li> <li>Shell: 100% poly <br> </li> <li>Lining: 100% poly (sleeve) 100% cotton (body)</li> <li>Light hand wash or dry clean</li> </ul>	
5010330255462	32287125569638	Army Quilted Blazer Beige	Trois Point	Jacket	52.00	TPARJABE03		113.0	g	[Size,M]	[Color,Beige]		http://www.myStore.com/products/	https://cdn.shopify.com/s/files/1/1137/7574/products/Screenshot2021-01-22at13.19.34_aefde442-7542-48bf-8e11-485445e08cf7.png	https://cdn.shopify.com/s/files/1/1137/7574/products/Screenshot2021-01-22at13.19.44.png|https://cdn.shopify.com/s/files/1/1137/7574/products/Screenshot2021-01-22at13.19.53.png|https://cdn.shopify.com/s/files/1/1137/7574/products/Screenshot2021-01-22at13.20.03.png|https://cdn.shopify.com/s/files/1/1137/7574/products/Screenshot2021-01-22at13.20.13.png	Looking for the perfect light layer for your pup? You've found it in the Army Quilted Blazer by Trois Point. <ul> <li>Long sleeves <br> </li> <li>Button closure</li> <li>Shell: 100% poly <br> </li> <li>Lining: 100% poly (sleeve) 100% cotton (body)</li> <li>Light hand wash or dry clean</li> </ul>	
5010330255462	32287125602406	Army Quilted Blazer Beige	Trois Point	Jacket	52.00	TPARJABE04		113.0	g	[Size,L]	[Color,Beige]		http://www.myStore.com/products/	https://cdn.shopify.com/s/files/1/1137/7574/products/Screenshot2021-01-22at13.19.34_aefde442-7542-48bf-8e11-485445e08cf7.png	https://cdn.shopify.com/s/files/1/1137/7574/products/Screenshot2021-01-22at13.19.44.png|https://cdn.shopify.com/s/files/1/1137/7574/products/Screenshot2021-01-22at13.19.53.png|https://cdn.shopify.com/s/files/1/1137/7574/products/Screenshot2021-01-22at13.20.03.png|https://cdn.shopify.com/s/files/1/1137/7574/products/Screenshot2021-01-22at13.20.13.png	Looking for the perfect light layer for your pup? You've found it in the Army Quilted Blazer by Trois Point. <ul> <li>Long sleeves <br> </li> <li>Button closure</li> <li>Shell: 100% poly <br> </li> <li>Lining: 100% poly (sleeve) 100% cotton (body)</li> <li>Light hand wash or dry clean</li> </ul>	
5010330255462	32287125635174	Army Quilted Blazer Beige	Trois Point	Jacket	52.00	TPARJABE05		113.0	g	[Size,XL]	[Color,Beige]		http://www.myStore.com/products/	https://cdn.shopify.com/s/files/1/1137/7574/products/Screenshot2021-01-22at13.19.34_aefde442-7542-48bf-8e11-485445e08cf7.png	https://cdn.shopify.com/s/files/1/1137/7574/products/Screenshot2021-01-22at13.19.44.png|https://cdn.shopify.com/s/files/1/1137/7574/products/Screenshot2021-01-22at13.19.53.png|https://cdn.shopify.com/s/files/1/1137/7574/products/Screenshot2021-01-22at13.20.03.png|https://cdn.shopify.com/s/files/1/1137/7574/products/Screenshot2021-01-22at13.20.13.png	Looking for the perfect light layer for your pup? You've found it in the Army Quilted Blazer by Trois Point. <ul> <li>Long sleeves <br> </li> <li>Button closure</li> <li>Shell: 100% poly <br> </li> <li>Lining: 100% poly (sleeve) 100% cotton (body)</li> <li>Light hand wash or dry clean</li> </ul>	
5010330255462	32287125667942	Army Quilted Blazer Beige	Trois Point	Jacket	52.00	TPARJABE06		113.0	g	[Size,XXL]	[Color,Beige]		http://www.myStore.com/products/	https://cdn.shopify.com/s/files/1/1137/7574/products/Screenshot2021-01-22at13.19.34_aefde442-7542-48bf-8e11-485445e08cf7.png	https://cdn.shopify.com/s/files/1/1137/7574/products/Screenshot2021-01-22at13.19.44.png|https://cdn.shopify.com/s/files/1/1137/7574/products/Screenshot2021-01-22at13.19.53.png|https://cdn.shopify.com/s/files/1/1137/7574/products/Screenshot2021-01-22at13.20.03.png|https://cdn.shopify.com/s/files/1/1137/7574/products/Screenshot2021-01-22at13.20.13.png	Looking for the perfect light layer for your pup? You've found it in the Army Quilted Blazer by Trois Point. <ul> <li>Long sleeves <br> </li> <li>Button closure</li> <li>Shell: 100% poly <br> </li> <li>Lining: 100% poly (sleeve) 100% cotton (body)</li> <li>Light hand wash or dry clean</li> </ul>	
9449081733417	49133301727529	Balloon Squeaky Dog Toy	Barc London	Toys	13.00	BABATOGR99	5060966440994	143.0	g	[Color,Green]			http://www.myStore.com/products/	https://cdn.shopify.com/s/files/1/1137/7574/files/barc_1.webp	https://cdn.shopify.com/s/files/1/1137/7574/files/barc4.webp|https://cdn.shopify.com/s/files/1/1137/7574/files/barc5.webp|https://cdn.shopify.com/s/files/1/1137/7574/files/barc3.webp|https://cdn.shopify.com/s/files/1/1137/7574/files/barc2.webp	<p data-mce-fragment="1" class=""><meta charset="utf-8"><meta charset="utf-8"><span>The Balloon Squeaky Dog Toy is shaped like a balloon animal and comes in a pastel green shade. It can be used by dogs of all ages and breeds during playtime. Your pup will enjoy the bounce on this unusually shaped dog squeaker. It offers a loud high-pitched squeak when chewed. Made from a lightweight synthetic rubber (TPR) that has good tear strength and abrasion resistance. This toy is non-toxic and won’t wear down your dog’s teeth and is available in five unique shapes. </span></p> <ul> <li data-mce-fragment="1"><span>Size: H14cm x W13.5cm <!----></span></li> <li data-mce-fragment="1"> <span>Before buying this toy, please ensure that it is suitable for your pet's preference, chewing habits, and size.</span><br> </li> </ul>	
8176289906985	44669252796713	Blooming Collar Cardigan Blue	Chiot	Shirts	28.00	CHBESHBE02		113.0	g	[Size,S]	[Color,Blue]		http://www.myStore.com/products/	https://cdn.shopify.com/s/files/1/1137/7574/products/Screenshot2023-03-21at12.27.16.png	https://cdn.shopify.com/s/files/1/1137/7574/products/Screenshot2023-03-21at12.27.44.png|https://cdn.shopify.com/s/files/1/1137/7574/products/Screenshot2023-03-21at12.27.54.png|https://cdn.shopify.com/s/files/1/1137/7574/products/Screenshot2023-03-21at12.27.32.png|https://cdn.shopify.com/s/files/1/1137/7574/products/Screenshot2023-03-21at12.28.09.png|https://cdn.shopify.com/s/files/1/1137/7574/products/Screenshot2023-03-21at12.28.17.png	<meta charset="utf-8"> <p>Check out the statement making peter pan style collar on the Blooming Collar Cardigan from Chiot! </p> <ul> <li>Button down cardigan with contrasting collar and trim<br> </li> <li>Long sleeves</li> <li>50% cotton, 45% poly, 5% spandex</li> <li>Hand wash in cold water, dry flat</li> </ul>	
8176289906985	44669252829481	Blooming Collar Cardigan Blue	Chiot	Shirts	28.00	CHBESHBE03		113.0	g	[Size,M]	[Color,Blue]		http://www.myStore.com/products/	https://cdn.shopify.com/s/files/1/1137/7574/products/Screenshot2023-03-21at12.27.16.png	https://cdn.shopify.com/s/files/1/1137/7574/products/Screenshot2023-03-21at12.27.44.png|https://cdn.shopify.com/s/files/1/1137/7574/products/Screenshot2023-03-21at12.27.54.png|https://cdn.shopify.com/s/files/1/1137/7574/products/Screenshot2023-03-21at12.27.32.png|https://cdn.shopify.com/s/files/1/1137/7574/products/Screenshot2023-03-21at12.28.09.png|https://cdn.shopify.com/s/files/1/1137/7574/products/Screenshot2023-03-21at12.28.17.png	<meta charset="utf-8"> <p>Check out the statement making peter pan style collar on the Blooming Collar Cardigan from Chiot! </p> <ul> <li>Button down cardigan with contrasting collar and trim<br> </li> <li>Long sleeves</li> <li>50% cotton, 45% poly, 5% spandex</li> <li>Hand wash in cold water, dry flat</li> </ul>	
8176289906985	44669252862249	Blooming Collar Cardigan Blue	Chiot	Shirts	28.00	CHBESHBE04		113.0	g	[Size,L]	[Color,Blue]		http://www.myStore.com/products/	https://cdn.shopify.com/s/files/1/1137/7574/products/Screenshot2023-03-21at12.27.16.png	https://cdn.shopify.com/s/files/1/1137/7574/products/Screenshot2023-03-21at12.27.44.png|https://cdn.shopify.com/s/files/1/1137/7574/products/Screenshot2023-03-21at12.27.54.png|https://cdn.shopify.com/s/files/1/1137/7574/products/Screenshot2023-03-21at12.27.32.png|https://cdn.shopify.com/s/files/1/1137/7574/products/Screenshot2023-03-21at12.28.09.png|https://cdn.shopify.com/s/files/1/1137/7574/products/Screenshot2023-03-21at12.28.17.png	<meta charset="utf-8"> <p>Check out the statement making peter pan style collar on the Blooming Collar Cardigan from Chiot! </p> <ul> <li>Button down cardigan with contrasting collar and trim<br> </li> <li>Long sleeves</li> <li>50% cotton, 45% poly, 5% spandex</li> <li>Hand wash in cold water, dry flat</li> </ul>	
8176289906985	44669252895017	Blooming Collar Cardigan Blue	Chiot	Shirts	28.00	CHBESHBE05		113.0	g	[Size,XL]	[Color,Blue]		http://www.myStore.com/products/	https://cdn.shopify.com/s/files/1/1137/7574/products/Screenshot2023-03-21at12.27.16.png	https://cdn.shopify.com/s/files/1/1137/7574/products/Screenshot2023-03-21at12.27.44.png|https://cdn.shopify.com/s/files/1/1137/7574/products/Screenshot2023-03-21at12.27.54.png|https://cdn.shopify.com/s/files/1/1137/7574/products/Screenshot2023-03-21at12.27.32.png|https://cdn.shopify.com/s/files/1/1137/7574/products/Screenshot2023-03-21at12.28.09.png|https://cdn.shopify.com/s/files/1/1137/7574/products/Screenshot2023-03-21at12.28.17.png	<meta charset="utf-8"> <p>Check out the statement making peter pan style collar on the Blooming Collar Cardigan from Chiot! </p> <ul> <li>Button down cardigan with contrasting collar and trim<br> </li> <li>Long sleeves</li> <li>50% cotton, 45% poly, 5% spandex</li> <li>Hand wash in cold water, dry flat</li> </ul>	
8176289906985	44669252927785	Blooming Collar Cardigan Blue	Chiot	Shirts	28.00	CHBESHBE06		113.0	g	[Size,XXL]	[Color,Blue]		http://www.myStore.com/products/	https://cdn.shopify.com/s/files/1/1137/7574/products/Screenshot2023-03-21at12.27.16.png	https://cdn.shopify.com/s/files/1/1137/7574/products/Screenshot2023-03-21at12.27.44.png|https://cdn.shopify.com/s/files/1/1137/7574/products/Screenshot2023-03-21at12.27.54.png|https://cdn.shopify.com/s/files/1/1137/7574/products/Screenshot2023-03-21at12.27.32.png|https://cdn.shopify.com/s/files/1/1137/7574/products/Screenshot2023-03-21at12.28.09.png|https://cdn.shopify.com/s/files/1/1137/7574/products/Screenshot2023-03-21at12.28.17.png	<meta charset="utf-8"> <p>Check out the statement making peter pan style collar on the Blooming Collar Cardigan from Chiot! </p> <ul> <li>Button down cardigan with contrasting collar and trim<br> </li> <li>Long sleeves</li> <li>50% cotton, 45% poly, 5% spandex</li> <li>Hand wash in cold water, dry flat</li> </ul>	
8176349511977	44669401104681	Blooming Collar Cardigan Coral Pink	Chiot	Shirts	28.00	CHBESHPI02		113.0	g	[Size,S]	[Color,Pink]		http://www.myStore.com/products/	https://cdn.shopify.com/s/files/1/1137/7574/products/Screenshot2023-03-21at13.07.12_48472ea1-b39f-4893-bca6-8f1954e2235c.png	https://cdn.shopify.com/s/files/1/1137/7574/products/Screenshot2023-03-21at13.07.02.png|https://cdn.shopify.com/s/files/1/1137/7574/products/Screenshot2023-03-21at13.07.21_23f93684-8fb0-4160-8de7-7200438c0929.png|https://cdn.shopify.com/s/files/1/1137/7574/products/Screenshot2023-03-21at13.07.49.png|https://cdn.shopify.com/s/files/1/1137/7574/products/Screenshot2023-03-21at13.08.18.png|https://cdn.shopify.com/s/files/1/1137/7574/products/Screenshot2023-03-21at13.07.41_3c3ec75c-05ae-41a0-a365-20c874ac5023.png|https://cdn.shopify.com/s/files/1/1137/7574/products/Screenshot2023-03-21at13.07.32_10fbdcef-1abf-483f-906d-561ff1f9cebe.png|https://cdn.shopify.com/s/files/1/1137/7574/products/Screenshot2023-03-21at13.08.00.png|https://cdn.shopify.com/s/files/1/1137/7574/products/Screenshot2023-03-21at12.28.09_ea834746-8d47-42f8-9117-1f8b4601b2f7.png|https://cdn.shopify.com/s/files/1/1137/7574/products/Screenshot2023-03-21at12.28.17_8480c20b-920c-49f6-b097-c046482e7614.png|https://cdn.shopify.com/s/files/1/1137/7574/products/Screenshot2023-03-21at13.07.12.png|https://cdn.shopify.com/s/files/1/1137/7574/products/Screenshot2023-03-21at13.07.21.png|https://cdn.shopify.com/s/files/1/1137/7574/products/Screenshot2023-03-21at13.07.32.png|https://cdn.shopify.com/s/files/1/1137/7574/products/Screenshot2023-03-21at13.07.41.png	<meta charset="utf-8"> <p>Check out the statement making peter pan style collar on the Blooming Collar Cardigan from Chiot! </p> <ul> <li>Button down cardigan with contrasting collar and trim<br> </li> <li>Long sleeves</li> <li>50% cotton, 45% poly, 5% spandex</li> <li>Hand wash in cold water, dry flat</li> </ul>	
8176349511977	44669401137449	Blooming Collar Cardigan Coral Pink	Chiot	Shirts	28.00	CHBESHPI03		113.0	g	[Size,M]	[Color,Pink]		http://www.myStore.com/products/	https://cdn.shopify.com/s/files/1/1137/7574/products/Screenshot2023-03-21at13.07.12_48472ea1-b39f-4893-bca6-8f1954e2235c.png	https://cdn.shopify.com/s/files/1/1137/7574/products/Screenshot2023-03-21at13.07.02.png|https://cdn.shopify.com/s/files/1/1137/7574/products/Screenshot2023-03-21at13.07.21_23f93684-8fb0-4160-8de7-7200438c0929.png|https://cdn.shopify.com/s/files/1/1137/7574/products/Screenshot2023-03-21at13.07.49.png|https://cdn.shopify.com/s/files/1/1137/7574/products/Screenshot2023-03-21at13.08.18.png|https://cdn.shopify.com/s/files/1/1137/7574/products/Screenshot2023-03-21at13.07.41_3c3ec75c-05ae-41a0-a365-20c874ac5023.png|https://cdn.shopify.com/s/files/1/1137/7574/products/Screenshot2023-03-21at13.07.32_10fbdcef-1abf-483f-906d-561ff1f9cebe.png|https://cdn.shopify.com/s/files/1/1137/7574/products/Screenshot2023-03-21at13.08.00.png|https://cdn.shopify.com/s/files/1/1137/7574/products/Screenshot2023-03-21at12.28.09_ea834746-8d47-42f8-9117-1f8b4601b2f7.png|https://cdn.shopify.com/s/files/1/1137/7574/products/Screenshot2023-03-21at12.28.17_8480c20b-920c-49f6-b097-c046482e7614.png|https://cdn.shopify.com/s/files/1/1137/7574/products/Screenshot2023-03-21at13.07.12.png|https://cdn.shopify.com/s/files/1/1137/7574/products/Screenshot2023-03-21at13.07.21.png|https://cdn.shopify.com/s/files/1/1137/7574/products/Screenshot2023-03-21at13.07.32.png|https://cdn.shopify.com/s/files/1/1137/7574/products/Screenshot2023-03-21at13.07.41.png	<meta charset="utf-8"> <p>Check out the statement making peter pan style collar on the Blooming Collar Cardigan from Chiot! </p> <ul> <li>Button down cardigan with contrasting collar and trim<br> </li> <li>Long sleeves</li> <li>50% cotton, 45% poly, 5% spandex</li> <li>Hand wash in cold water, dry flat</li> </ul>	
8176349511977	44669401170217	Blooming Collar Cardigan Coral Pink	Chiot	Shirts	28.00	CHBESHPI04		113.0	g	[Size,L]	[Color,Pink]		http://www.myStore.com/products/	https://cdn.shopify.com/s/files/1/1137/7574/products/Screenshot2023-03-21at13.07.12_48472ea1-b39f-4893-bca6-8f1954e2235c.png	https://cdn.shopify.com/s/files/1/1137/7574/products/Screenshot2023-03-21at13.07.02.png|https://cdn.shopify.com/s/files/1/1137/7574/products/Screenshot2023-03-21at13.07.21_23f93684-8fb0-4160-8de7-7200438c0929.png|https://cdn.shopify.com/s/files/1/1137/7574/products/Screenshot2023-03-21at13.07.49.png|https://cdn.shopify.com/s/files/1/1137/7574/products/Screenshot2023-03-21at13.08.18.png|https://cdn.shopify.com/s/files/1/1137/7574/products/Screenshot2023-03-21at13.07.41_3c3ec75c-05ae-41a0-a365-20c874ac5023.png|https://cdn.shopify.com/s/files/1/1137/7574/products/Screenshot2023-03-21at13.07.32_10fbdcef-1abf-483f-906d-561ff1f9cebe.png|https://cdn.shopify.com/s/files/1/1137/7574/products/Screenshot2023-03-21at13.08.00.png|https://cdn.shopify.com/s/files/1/1137/7574/products/Screenshot2023-03-21at12.28.09_ea834746-8d47-42f8-9117-1f8b4601b2f7.png|https://cdn.shopify.com/s/files/1/1137/7574/products/Screenshot2023-03-21at12.28.17_8480c20b-920c-49f6-b097-c046482e7614.png|https://cdn.shopify.com/s/files/1/1137/7574/products/Screenshot2023-03-21at13.07.12.png|https://cdn.shopify.com/s/files/1/1137/7574/products/Screenshot2023-03-21at13.07.21.png|https://cdn.shopify.com/s/files/1/1137/7574/products/Screenshot2023-03-21at13.07.32.png|https://cdn.shopify.com/s/files/1/1137/7574/products/Screenshot2023-03-21at13.07.41.png	<meta charset="utf-8"> <p>Check out the statement making peter pan style collar on the Blooming Collar Cardigan from Chiot! </p> <ul> <li>Button down cardigan with contrasting collar and trim<br> </li> <li>Long sleeves</li> <li>50% cotton, 45% poly, 5% spandex</li> <li>Hand wash in cold water, dry flat</li> </ul>	
8176349511977	44669401202985	Blooming Collar Cardigan Coral Pink	Chiot	Shirts	28.00	CHBESHPI05		113.0	g	[Size,XL]	[Color,Pink]		http://www.myStore.com/products/	https://cdn.shopify.com/s/files/1/1137/7574/products/Screenshot2023-03-21at13.07.12_48472ea1-b39f-4893-bca6-8f1954e2235c.png	https://cdn.shopify.com/s/files/1/1137/7574/products/Screenshot2023-03-21at13.07.02.png|https://cdn.shopify.com/s/files/1/1137/7574/products/Screenshot2023-03-21at13.07.21_23f93684-8fb0-4160-8de7-7200438c0929.png|https://cdn.shopify.com/s/files/1/1137/7574/products/Screenshot2023-03-21at13.07.49.png|https://cdn.shopify.com/s/files/1/1137/7574/products/Screenshot2023-03-21at13.08.18.png|https://cdn.shopify.com/s/files/1/1137/7574/products/Screenshot2023-03-21at13.07.41_3c3ec75c-05ae-41a0-a365-20c874ac5023.png|https://cdn.shopify.com/s/files/1/1137/7574/products/Screenshot2023-03-21at13.07.32_10fbdcef-1abf-483f-906d-561ff1f9cebe.png|https://cdn.shopify.com/s/files/1/1137/7574/products/Screenshot2023-03-21at13.08.00.png|https://cdn.shopify.com/s/files/1/1137/7574/products/Screenshot2023-03-21at12.28.09_ea834746-8d47-42f8-9117-1f8b4601b2f7.png|https://cdn.shopify.com/s/files/1/1137/7574/products/Screenshot2023-03-21at12.28.17_8480c20b-920c-49f6-b097-c046482e7614.png|https://cdn.shopify.com/s/files/1/1137/7574/products/Screenshot2023-03-21at13.07.12.png|https://cdn.shopify.com/s/files/1/1137/7574/products/Screenshot2023-03-21at13.07.21.png|https://cdn.shopify.com/s/files/1/1137/7574/products/Screenshot2023-03-21at13.07.32.png|https://cdn.shopify.com/s/files/1/1137/7574/products/Screenshot2023-03-21at13.07.41.png	<meta charset="utf-8"> <p>Check out the statement making peter pan style collar on the Blooming Collar Cardigan from Chiot! </p> <ul> <li>Button down cardigan with contrasting collar and trim<br> </li> <li>Long sleeves</li> <li>50% cotton, 45% poly, 5% spandex</li> <li>Hand wash in cold water, dry flat</li> </ul>	
8176349511977	44669401235753	Blooming Collar Cardigan Coral Pink	Chiot	Shirts	28.00	CHBESHPI06		113.0	g	[Size,XXL]	[Color,Pink]		http://www.myStore.com/products/	https://cdn.shopify.com/s/files/1/1137/7574/products/Screenshot2023-03-21at13.07.12_48472ea1-b39f-4893-bca6-8f1954e2235c.png	https://cdn.shopify.com/s/files/1/1137/7574/products/Screenshot2023-03-21at13.07.02.png|https://cdn.shopify.com/s/files/1/1137/7574/products/Screenshot2023-03-21at13.07.21_23f93684-8fb0-4160-8de7-7200438c0929.png|https://cdn.shopify.com/s/files/1/1137/7574/products/Screenshot2023-03-21at13.07.49.png|https://cdn.shopify.com/s/files/1/1137/7574/products/Screenshot2023-03-21at13.08.18.png|https://cdn.shopify.com/s/files/1/1137/7574/products/Screenshot2023-03-21at13.07.41_3c3ec75c-05ae-41a0-a365-20c874ac5023.png|https://cdn.shopify.com/s/files/1/1137/7574/products/Screenshot2023-03-21at13.07.32_10fbdcef-1abf-483f-906d-561ff1f9cebe.png|https://cdn.shopify.com/s/files/1/1137/7574/products/Screenshot2023-03-21at13.08.00.png|https://cdn.shopify.com/s/files/1/1137/7574/products/Screenshot2023-03-21at12.28.09_ea834746-8d47-42f8-9117-1f8b4601b2f7.png|https://cdn.shopify.com/s/files/1/1137/7574/products/Screenshot2023-03-21at12.28.17_8480c20b-920c-49f6-b097-c046482e7614.png|https://cdn.shopify.com/s/files/1/1137/7574/products/Screenshot2023-03-21at13.07.12.png|https://cdn.shopify.com/s/files/1/1137/7574/products/Screenshot2023-03-21at13.07.21.png|https://cdn.shopify.com/s/files/1/1137/7574/products/Screenshot2023-03-21at13.07.32.png|https://cdn.shopify.com/s/files/1/1137/7574/products/Screenshot2023-03-21at13.07.41.png	<meta charset="utf-8"> <p>Check out the statement making peter pan style collar on the Blooming Collar Cardigan from Chiot! </p> <ul> <li>Button down cardigan with contrasting collar and trim<br> </li> <li>Long sleeves</li> <li>50% cotton, 45% poly, 5% spandex</li> <li>Hand wash in cold water, dry flat</li> </ul>	
5010330255462	39426922840166	Army Quilted Blazer Beige	Trois Point	Jacket	52.00	TPARJABE01		113.0	g	[Size,XS]	[Color,Beige]		http://www.myStore.com/products/	https://cdn.shopify.com/s/files/1/1137/7574/products/Screenshot2021-01-22at13.19.34_aefde442-7542-48bf-8e11-485445e08cf7.png	https://cdn.shopify.com/s/files/1/1137/7574/products/Screenshot2021-01-22at13.19.44.png|https://cdn.shopify.com/s/files/1/1137/7574/products/Screenshot2021-01-22at13.19.53.png|https://cdn.shopify.com/s/files/1/1137/7574/products/Screenshot2021-01-22at13.20.03.png|https://cdn.shopify.com/s/files/1/1137/7574/products/Screenshot2021-01-22at13.20.13.png	Looking for the perfect light layer for your pup? You've found it in the Army Quilted Blazer by Trois Point. <ul> <li>Long sleeves <br> </li> <li>Button closure</li> <li>Shell: 100% poly <br> </li> <li>Lining: 100% poly (sleeve) 100% cotton (body)</li> <li>Light hand wash or dry clean</li> </ul>	
5010330255462	32287125536870	Army Quilted Blazer Beige	Trois Point	Jacket	52.00	TPARJABE02		113.0	g	[Size,S]	[Color,Beige]		http://www.myStore.com/products/	https://cdn.shopify.com/s/files/1/1137/7574/products/Screenshot2021-01-22at13.19.34_aefde442-7542-48bf-8e11-485445e08cf7.png	https://cdn.shopify.com/s/files/1/1137/7574/products/Screenshot2021-01-22at13.19.44.png|https://cdn.shopify.com/s/files/1/1137/7574/products/Screenshot2021-01-22at13.19.53.png|https://cdn.shopify.com/s/files/1/1137/7574/products/Screenshot2021-01-22at13.20.03.png|https://cdn.shopify.com/s/files/1/1137/7574/products/Screenshot2021-01-22at13.20.13.png	Looking for the perfect light layer for your pup? You've found it in the Army Quilted Blazer by Trois Point. <ul> <li>Long sleeves <br> </li> <li>Button closure</li> <li>Shell: 100% poly <br> </li> <li>Lining: 100% poly (sleeve) 100% cotton (body)</li> <li>Light hand wash or dry clean</li> </ul>	
5010330255462	32287125569638	Army Quilted Blazer Beige	Trois Point	Jacket	52.00	TPARJABE03		113.0	g	[Size,M]	[Color,Beige]		http://www.myStore.com/products/	https://cdn.shopify.com/s/files/1/1137/7574/products/Screenshot2021-01-22at13.19.34_aefde442-7542-48bf-8e11-485445e08cf7.png	https://cdn.shopify.com/s/files/1/1137/7574/products/Screenshot2021-01-22at13.19.44.png|https://cdn.shopify.com/s/files/1/1137/7574/products/Screenshot2021-01-22at13.19.53.png|https://cdn.shopify.com/s/files/1/1137/7574/products/Screenshot2021-01-22at13.20.03.png|https://cdn.shopify.com/s/files/1/1137/7574/products/Screenshot2021-01-22at13.20.13.png	Looking for the perfect light layer for your pup? You've found it in the Army Quilted Blazer by Trois Point. <ul> <li>Long sleeves <br> </li> <li>Button closure</li> <li>Shell: 100% poly <br> </li> <li>Lining: 100% poly (sleeve) 100% cotton (body)</li> <li>Light hand wash or dry clean</li> </ul>	
5010330255462	32287125602406	Army Quilted Blazer Beige	Trois Point	Jacket	52.00	TPARJABE04		113.0	g	[Size,L]	[Color,Beige]		http://www.myStore.com/products/	https://cdn.shopify.com/s/files/1/1137/7574/products/Screenshot2021-01-22at13.19.34_aefde442-7542-48bf-8e11-485445e08cf7.png	https://cdn.shopify.com/s/files/1/1137/7574/products/Screenshot2021-01-22at13.19.44.png|https://cdn.shopify.com/s/files/1/1137/7574/products/Screenshot2021-01-22at13.19.53.png|https://cdn.shopify.com/s/files/1/1137/7574/products/Screenshot2021-01-22at13.20.03.png|https://cdn.shopify.com/s/files/1/1137/7574/products/Screenshot2021-01-22at13.20.13.png	Looking for the perfect light layer for your pup? You've found it in the Army Quilted Blazer by Trois Point. <ul> <li>Long sleeves <br> </li> <li>Button closure</li> <li>Shell: 100% poly <br> </li> <li>Lining: 100% poly (sleeve) 100% cotton (body)</li> <li>Light hand wash or dry clean</li> </ul>	
5010330255462	32287125635174	Army Quilted Blazer Beige	Trois Point	Jacket	52.00	TPARJABE05		113.0	g	[Size,XL]	[Color,Beige]		http://www.myStore.com/products/	https://cdn.shopify.com/s/files/1/1137/7574/products/Screenshot2021-01-22at13.19.34_aefde442-7542-48bf-8e11-485445e08cf7.png	https://cdn.shopify.com/s/files/1/1137/7574/products/Screenshot2021-01-22at13.19.44.png|https://cdn.shopify.com/s/files/1/1137/7574/products/Screenshot2021-01-22at13.19.53.png|https://cdn.shopify.com/s/files/1/1137/7574/products/Screenshot2021-01-22at13.20.03.png|https://cdn.shopify.com/s/files/1/1137/7574/products/Screenshot2021-01-22at13.20.13.png	Looking for the perfect light layer for your pup? You've found it in the Army Quilted Blazer by Trois Point. <ul> <li>Long sleeves <br> </li> <li>Button closure</li> <li>Shell: 100% poly <br> </li> <li>Lining: 100% poly (sleeve) 100% cotton (body)</li> <li>Light hand wash or dry clean</li> </ul>	
5010330255462	32287125667942	Army Quilted Blazer Beige	Trois Point	Jacket	52.00	TPARJABE06		113.0	g	[Size,XXL]	[Color,Beige]		http://www.myStore.com/products/	https://cdn.shopify.com/s/files/1/1137/7574/products/Screenshot2021-01-22at13.19.34_aefde442-7542-48bf-8e11-485445e08cf7.png	https://cdn.shopify.com/s/files/1/1137/7574/products/Screenshot2021-01-22at13.19.44.png|https://cdn.shopify.com/s/files/1/1137/7574/products/Screenshot2021-01-22at13.19.53.png|https://cdn.shopify.com/s/files/1/1137/7574/products/Screenshot2021-01-22at13.20.03.png|https://cdn.shopify.com/s/files/1/1137/7574/products/Screenshot2021-01-22at13.20.13.png	Looking for the perfect light layer for your pup? You've found it in the Army Quilted Blazer by Trois Point. <ul> <li>Long sleeves <br> </li> <li>Button closure</li> <li>Shell: 100% poly <br> </li> <li>Lining: 100% poly (sleeve) 100% cotton (body)</li> <li>Light hand wash or dry clean</li> </ul>	
9449081733417	49133301727529	Balloon Squeaky Dog Toy	Barc London	Toys	13.00	BABATOGR99	5060966440994	143.0	g	[Color,Green]			http://www.myStore.com/products/	https://cdn.shopify.com/s/files/1/1137/7574/files/barc_1.webp	https://cdn.shopify.com/s/files/1/1137/7574/files/barc4.webp|https://cdn.shopify.com/s/files/1/1137/7574/files/barc5.webp|https://cdn.shopify.com/s/files/1/1137/7574/files/barc3.webp|https://cdn.shopify.com/s/files/1/1137/7574/files/barc2.webp	<p data-mce-fragment="1" class=""><meta charset="utf-8"><meta charset="utf-8"><span>The Balloon Squeaky Dog Toy is shaped like a balloon animal and comes in a pastel green shade. It can be used by dogs of all ages and breeds during playtime. Your pup will enjoy the bounce on this unusually shaped dog squeaker. It offers a loud high-pitched squeak when chewed. Made from a lightweight synthetic rubber (TPR) that has good tear strength and abrasion resistance. This toy is non-toxic and won’t wear down your dog’s teeth and is available in five unique shapes. </span></p> <ul> <li data-mce-fragment="1"><span>Size: H14cm x W13.5cm <!----></span></li> <li data-mce-fragment="1"> <span>Before buying this toy, please ensure that it is suitable for your pet's preference, chewing habits, and size.</span><br> </li> </ul>	
8176289906985	44669252796713	Blooming Collar Cardigan Blue	Chiot	Shirts	28.00	CHBESHBE02		113.0	g	[Size,S]	[Color,Blue]		http://www.myStore.com/products/	https://cdn.shopify.com/s/files/1/1137/7574/products/Screenshot2023-03-21at12.27.16.png	https://cdn.shopify.com/s/files/1/1137/7574/products/Screenshot2023-03-21at12.27.44.png|https://cdn.shopify.com/s/files/1/1137/7574/products/Screenshot2023-03-21at12.27.54.png|https://cdn.shopify.com/s/files/1/1137/7574/products/Screenshot2023-03-21at12.27.32.png|https://cdn.shopify.com/s/files/1/1137/7574/products/Screenshot2023-03-21at12.28.09.png|https://cdn.shopify.com/s/files/1/1137/7574/products/Screenshot2023-03-21at12.28.17.png	<meta charset="utf-8"> <p>Check out the statement making peter pan style collar on the Blooming Collar Cardigan from Chiot! </p> <ul> <li>Button down cardigan with contrasting collar and trim<br> </li> <li>Long sleeves</li> <li>50% cotton, 45% poly, 5% spandex</li> <li>Hand wash in cold water, dry flat</li> </ul>	
8176289906985	44669252829481	Blooming Collar Cardigan Blue	Chiot	Shirts	28.00	CHBESHBE03		113.0	g	[Size,M]	[Color,Blue]		http://www.myStore.com/products/	https://cdn.shopify.com/s/files/1/1137/7574/products/Screenshot2023-03-21at12.27.16.png	https://cdn.shopify.com/s/files/1/1137/7574/products/Screenshot2023-03-21at12.27.44.png|https://cdn.shopify.com/s/files/1/1137/7574/products/Screenshot2023-03-21at12.27.54.png|https://cdn.shopify.com/s/files/1/1137/7574/products/Screenshot2023-03-21at12.27.32.png|https://cdn.shopify.com/s/files/1/1137/7574/products/Screenshot2023-03-21at12.28.09.png|https://cdn.shopify.com/s/files/1/1137/7574/products/Screenshot2023-03-21at12.28.17.png	<meta charset="utf-8"> <p>Check out the statement making peter pan style collar on the Blooming Collar Cardigan from Chiot! </p> <ul> <li>Button down cardigan with contrasting collar and trim<br> </li> <li>Long sleeves</li> <li>50% cotton, 45% poly, 5% spandex</li> <li>Hand wash in cold water, dry flat</li> </ul>	
8176289906985	44669252862249	Blooming Collar Cardigan Blue	Chiot	Shirts	28.00	CHBESHBE04		113.0	g	[Size,L]	[Color,Blue]		http://www.myStore.com/products/	https://cdn.shopify.com/s/files/1/1137/7574/products/Screenshot2023-03-21at12.27.16.png	https://cdn.shopify.com/s/files/1/1137/7574/products/Screenshot2023-03-21at12.27.44.png|https://cdn.shopify.com/s/files/1/1137/7574/products/Screenshot2023-03-21at12.27.54.png|https://cdn.shopify.com/s/files/1/1137/7574/products/Screenshot2023-03-21at12.27.32.png|https://cdn.shopify.com/s/files/1/1137/7574/products/Screenshot2023-03-21at12.28.09.png|https://cdn.shopify.com/s/files/1/1137/7574/products/Screenshot2023-03-21at12.28.17.png	<meta charset="utf-8"> <p>Check out the statement making peter pan style collar on the Blooming Collar Cardigan from Chiot! </p> <ul> <li>Button down cardigan with contrasting collar and trim<br> </li> <li>Long sleeves</li> <li>50% cotton, 45% poly, 5% spandex</li> <li>Hand wash in cold water, dry flat</li> </ul>	
8176289906985	44669252895017	Blooming Collar Cardigan Blue	Chiot	Shirts	28.00	CHBESHBE05		113.0	g	[Size,XL]	[Color,Blue]		http://www.myStore.com/products/	https://cdn.shopify.com/s/files/1/1137/7574/products/Screenshot2023-03-21at12.27.16.png	https://cdn.shopify.com/s/files/1/1137/7574/products/Screenshot2023-03-21at12.27.44.png|https://cdn.shopify.com/s/files/1/1137/7574/products/Screenshot2023-03-21at12.27.54.png|https://cdn.shopify.com/s/files/1/1137/7574/products/Screenshot2023-03-21at12.27.32.png|https://cdn.shopify.com/s/files/1/1137/7574/products/Screenshot2023-03-21at12.28.09.png|https://cdn.shopify.com/s/files/1/1137/7574/products/Screenshot2023-03-21at12.28.17.png	<meta charset="utf-8"> <p>Check out the statement making peter pan style collar on the Blooming Collar Cardigan from Chiot! </p> <ul> <li>Button down cardigan with contrasting collar and trim<br> </li> <li>Long sleeves</li> <li>50% cotton, 45% poly, 5% spandex</li> <li>Hand wash in cold water, dry flat</li> </ul>	
8176289906985	44669252927785	Blooming Collar Cardigan Blue	Chiot	Shirts	28.00	CHBESHBE06		113.0	g	[Size,XXL]	[Color,Blue]		http://www.myStore.com/products/	https://cdn.shopify.com/s/files/1/1137/7574/products/Screenshot2023-03-21at12.27.16.png	https://cdn.shopify.com/s/files/1/1137/7574/products/Screenshot2023-03-21at12.27.44.png|https://cdn.shopify.com/s/files/1/1137/7574/products/Screenshot2023-03-21at12.27.54.png|https://cdn.shopify.com/s/files/1/1137/7574/products/Screenshot2023-03-21at12.27.32.png|https://cdn.shopify.com/s/files/1/1137/7574/products/Screenshot2023-03-21at12.28.09.png|https://cdn.shopify.com/s/files/1/1137/7574/products/Screenshot2023-03-21at12.28.17.png	<meta charset="utf-8"> <p>Check out the statement making peter pan style collar on the Blooming Collar Cardigan from Chiot! </p> <ul> <li>Button down cardigan with contrasting collar and trim<br> </li> <li>Long sleeves</li> <li>50% cotton, 45% poly, 5% spandex</li> <li>Hand wash in cold water, dry flat</li> </ul>	
8176349511977	44669401104681	Blooming Collar Cardigan Coral Pink	Chiot	Shirts	28.00	CHBESHPI02		113.0	g	[Size,S]	[Color,Pink]		http://www.myStore.com/products/	https://cdn.shopify.com/s/files/1/1137/7574/products/Screenshot2023-03-21at13.07.12_48472ea1-b39f-4893-bca6-8f1954e2235c.png	https://cdn.shopify.com/s/files/1/1137/7574/products/Screenshot2023-03-21at13.07.02.png|https://cdn.shopify.com/s/files/1/1137/7574/products/Screenshot2023-03-21at13.07.21_23f93684-8fb0-4160-8de7-7200438c0929.png|https://cdn.shopify.com/s/files/1/1137/7574/products/Screenshot2023-03-21at13.07.49.png|https://cdn.shopify.com/s/files/1/1137/7574/products/Screenshot2023-03-21at13.08.18.png|https://cdn.shopify.com/s/files/1/1137/7574/products/Screenshot2023-03-21at13.07.41_3c3ec75c-05ae-41a0-a365-20c874ac5023.png|https://cdn.shopify.com/s/files/1/1137/7574/products/Screenshot2023-03-21at13.07.32_10fbdcef-1abf-483f-906d-561ff1f9cebe.png|https://cdn.shopify.com/s/files/1/1137/7574/products/Screenshot2023-03-21at13.08.00.png|https://cdn.shopify.com/s/files/1/1137/7574/products/Screenshot2023-03-21at12.28.09_ea834746-8d47-42f8-9117-1f8b4601b2f7.png|https://cdn.shopify.com/s/files/1/1137/7574/products/Screenshot2023-03-21at12.28.17_8480c20b-920c-49f6-b097-c046482e7614.png|https://cdn.shopify.com/s/files/1/1137/7574/products/Screenshot2023-03-21at13.07.12.png|https://cdn.shopify.com/s/files/1/1137/7574/products/Screenshot2023-03-21at13.07.21.png|https://cdn.shopify.com/s/files/1/1137/7574/products/Screenshot2023-03-21at13.07.32.png|https://cdn.shopify.com/s/files/1/1137/7574/products/Screenshot2023-03-21at13.07.41.png	<meta charset="utf-8"> <p>Check out the statement making peter pan style collar on the Blooming Collar Cardigan from Chiot! </p> <ul> <li>Button down cardigan with contrasting collar and trim<br> </li> <li>Long sleeves</li> <li>50% cotton, 45% poly, 5% spandex</li> <li>Hand wash in cold water, dry flat</li> </ul>	
8176349511977	44669401137449	Blooming Collar Cardigan Coral Pink	Chiot	Shirts	28.00	CHBESHPI03		113.0	g	[Size,M]	[Color,Pink]		http://www.myStore.com/products/	https://cdn.shopify.com/s/files/1/1137/7574/products/Screenshot2023-03-21at13.07.12_48472ea1-b39f-4893-bca6-8f1954e2235c.png	https://cdn.shopify.com/s/files/1/1137/7574/products/Screenshot2023-03-21at13.07.02.png|https://cdn.shopify.com/s/files/1/1137/7574/products/Screenshot2023-03-21at13.07.21_23f93684-8fb0-4160-8de7-7200438c0929.png|https://cdn.shopify.com/s/files/1/1137/7574/products/Screenshot2023-03-21at13.07.49.png|https://cdn.shopify.com/s/files/1/1137/7574/products/Screenshot2023-03-21at13.08.18.png|https://cdn.shopify.com/s/files/1/1137/7574/products/Screenshot2023-03-21at13.07.41_3c3ec75c-05ae-41a0-a365-20c874ac5023.png|https://cdn.shopify.com/s/files/1/1137/7574/products/Screenshot2023-03-21at13.07.32_10fbdcef-1abf-483f-906d-561ff1f9cebe.png|https://cdn.shopify.com/s/files/1/1137/7574/products/Screenshot2023-03-21at13.08.00.png|https://cdn.shopify.com/s/files/1/1137/7574/products/Screenshot2023-03-21at12.28.09_ea834746-8d47-42f8-9117-1f8b4601b2f7.png|https://cdn.shopify.com/s/files/1/1137/7574/products/Screenshot2023-03-21at12.28.17_8480c20b-920c-49f6-b097-c046482e7614.png|https://cdn.shopify.com/s/files/1/1137/7574/products/Screenshot2023-03-21at13.07.12.png|https://cdn.shopify.com/s/files/1/1137/7574/products/Screenshot2023-03-21at13.07.21.png|https://cdn.shopify.com/s/files/1/1137/7574/products/Screenshot2023-03-21at13.07.32.png|https://cdn.shopify.com/s/files/1/1137/7574/products/Screenshot2023-03-21at13.07.41.png	<meta charset="utf-8"> <p>Check out the statement making peter pan style collar on the Blooming Collar Cardigan from Chiot! </p> <ul> <li>Button down cardigan with contrasting collar and trim<br> </li> <li>Long sleeves</li> <li>50% cotton, 45% poly, 5% spandex</li> <li>Hand wash in cold water, dry flat</li> </ul>	
8176349511977	44669401170217	Blooming Collar Cardigan Coral Pink	Chiot	Shirts	28.00	CHBESHPI04		113.0	g	[Size,L]	[Color,Pink]		http://www.myStore.com/products/	https://cdn.shopify.com/s/files/1/1137/7574/products/Screenshot2023-03-21at13.07.12_48472ea1-b39f-4893-bca6-8f1954e2235c.png	https://cdn.shopify.com/s/files/1/1137/7574/products/Screenshot2023-03-21at13.07.02.png|https://cdn.shopify.com/s/files/1/1137/7574/products/Screenshot2023-03-21at13.07.21_23f93684-8fb0-4160-8de7-7200438c0929.png|https://cdn.shopify.com/s/files/1/1137/7574/products/Screenshot2023-03-21at13.07.49.png|https://cdn.shopify.com/s/files/1/1137/7574/products/Screenshot2023-03-21at13.08.18.png|https://cdn.shopify.com/s/files/1/1137/7574/products/Screenshot2023-03-21at13.07.41_3c3ec75c-05ae-41a0-a365-20c874ac5023.png|https://cdn.shopify.com/s/files/1/1137/7574/products/Screenshot2023-03-21at13.07.32_10fbdcef-1abf-483f-906d-561ff1f9cebe.png|https://cdn.shopify.com/s/files/1/1137/7574/products/Screenshot2023-03-21at13.08.00.png|https://cdn.shopify.com/s/files/1/1137/7574/products/Screenshot2023-03-21at12.28.09_ea834746-8d47-42f8-9117-1f8b4601b2f7.png|https://cdn.shopify.com/s/files/1/1137/7574/products/Screenshot2023-03-21at12.28.17_8480c20b-920c-49f6-b097-c046482e7614.png|https://cdn.shopify.com/s/files/1/1137/7574/products/Screenshot2023-03-21at13.07.12.png|https://cdn.shopify.com/s/files/1/1137/7574/products/Screenshot2023-03-21at13.07.21.png|https://cdn.shopify.com/s/files/1/1137/7574/products/Screenshot2023-03-21at13.07.32.png|https://cdn.shopify.com/s/files/1/1137/7574/products/Screenshot2023-03-21at13.07.41.png	<meta charset="utf-8"> <p>Check out the statement making peter pan style collar on the Blooming Collar Cardigan from Chiot! </p> <ul> <li>Button down cardigan with contrasting collar and trim<br> </li> <li>Long sleeves</li> <li>50% cotton, 45% poly, 5% spandex</li> <li>Hand wash in cold water, dry flat</li> </ul>	
8176349511977	44669401202985	Blooming Collar Cardigan Coral Pink	Chiot	Shirts	28.00	CHBESHPI05		113.0	g	[Size,XL]	[Color,Pink]		http://www.myStore.com/products/	https://cdn.shopify.com/s/files/1/1137/7574/products/Screenshot2023-03-21at13.07.12_48472ea1-b39f-4893-bca6-8f1954e2235c.png	https://cdn.shopify.com/s/files/1/1137/7574/products/Screenshot2023-03-21at13.07.02.png|https://cdn.shopify.com/s/files/1/1137/7574/products/Screenshot2023-03-21at13.07.21_23f93684-8fb0-4160-8de7-7200438c0929.png|https://cdn.shopify.com/s/files/1/1137/7574/products/Screenshot2023-03-21at13.07.49.png|https://cdn.shopify.com/s/files/1/1137/7574/products/Screenshot2023-03-21at13.08.18.png|https://cdn.shopify.com/s/files/1/1137/7574/products/Screenshot2023-03-21at13.07.41_3c3ec75c-05ae-41a0-a365-20c874ac5023.png|https://cdn.shopify.com/s/files/1/1137/7574/products/Screenshot2023-03-21at13.07.32_10fbdcef-1abf-483f-906d-561ff1f9cebe.png|https://cdn.shopify.com/s/files/1/1137/7574/products/Screenshot2023-03-21at13.08.00.png|https://cdn.shopify.com/s/files/1/1137/7574/products/Screenshot2023-03-21at12.28.09_ea834746-8d47-42f8-9117-1f8b4601b2f7.png|https://cdn.shopify.com/s/files/1/1137/7574/products/Screenshot2023-03-21at12.28.17_8480c20b-920c-49f6-b097-c046482e7614.png|https://cdn.shopify.com/s/files/1/1137/7574/products/Screenshot2023-03-21at13.07.12.png|https://cdn.shopify.com/s/files/1/1137/7574/products/Screenshot2023-03-21at13.07.21.png|https://cdn.shopify.com/s/files/1/1137/7574/products/Screenshot2023-03-21at13.07.32.png|https://cdn.shopify.com/s/files/1/1137/7574/products/Screenshot2023-03-21at13.07.41.png	<meta charset="utf-8"> <p>Check out the statement making peter pan style collar on the Blooming Collar Cardigan from Chiot! </p> <ul> <li>Button down cardigan with contrasting collar and trim<br> </li> <li>Long sleeves</li> <li>50% cotton, 45% poly, 5% spandex</li> <li>Hand wash in cold water, dry flat</li> </ul>	
8176349511977	44669401235753	Blooming Collar Cardigan Coral Pink	Chiot	Shirts	28.00	CHBESHPI06		113.0	g	[Size,XXL]	[Color,Pink]		http://www.myStore.com/products/	https://cdn.shopify.com/s/files/1/1137/7574/products/Screenshot2023-03-21at13.07.12_48472ea1-b39f-4893-bca6-8f1954e2235c.png	https://cdn.shopify.com/s/files/1/1137/7574/products/Screenshot2023-03-21at13.07.02.png|https://cdn.shopify.com/s/files/1/1137/7574/products/Screenshot2023-03-21at13.07.21_23f93684-8fb0-4160-8de7-7200438c0929.png|https://cdn.shopify.com/s/files/1/1137/7574/products/Screenshot2023-03-21at13.07.49.png|https://cdn.shopify.com/s/files/1/1137/7574/products/Screenshot2023-03-21at13.08.18.png|https://cdn.shopify.com/s/files/1/1137/7574/products/Screenshot2023-03-21at13.07.41_3c3ec75c-05ae-41a0-a365-20c874ac5023.png|https://cdn.shopify.com/s/files/1/1137/7574/products/Screenshot2023-03-21at13.07.32_10fbdcef-1abf-483f-906d-561ff1f9cebe.png|https://cdn.shopify.com/s/files/1/1137/7574/products/Screenshot2023-03-21at13.08.00.png|https://cdn.shopify.com/s/files/1/1137/7574/products/Screenshot2023-03-21at12.28.09_ea834746-8d47-42f8-9117-1f8b4601b2f7.png|https://cdn.shopify.com/s/files/1/1137/7574/products/Screenshot2023-03-21at12.28.17_8480c20b-920c-49f6-b097-c046482e7614.png|https://cdn.shopify.com/s/files/1/1137/7574/products/Screenshot2023-03-21at13.07.12.png|https://cdn.shopify.com/s/files/1/1137/7574/products/Screenshot2023-03-21at13.07.21.png|https://cdn.shopify.com/s/files/1/1137/7574/products/Screenshot2023-03-21at13.07.32.png|https://cdn.shopify.com/s/files/1/1137/7574/products/Screenshot2023-03-21at13.07.41.png	<meta charset="utf-8"> <p>Check out the statement making peter pan style collar on the Blooming Collar Cardigan from Chiot! </p> <ul> <li>Button down cardigan with contrasting collar and trim<br> </li> <li>Long sleeves</li> <li>50% cotton, 45% poly, 5% spandex</li> <li>Hand wash in cold water, dry flat</li> </ul>	
8176353804585	44669416210729	Blooming Collar Cardigan Violet	Chiot	Shirts	28.00	CHBESHPU02		113.0	g	[Size,S]	[Color,Violet]		http://www.myStore.com/products/	https://cdn.shopify.com/s/files/1/1137/7574/products/Screenshot2023-03-21at13.13.06.png	https://cdn.shopify.com/s/files/1/1137/7574/products/Screenshot2023-03-21at13.13.15.png|https://cdn.shopify.com/s/files/1/1137/7574/products/Screenshot2023-03-21at13.12.57.png|https://cdn.shopify.com/s/files/1/1137/7574/products/Screenshot2023-03-21at13.12.37.png|https://cdn.shopify.com/s/files/1/1137/7574/products/Screenshot2023-03-21at13.12.47.png|https://cdn.shopify.com/s/files/1/1137/7574/products/Screenshot2023-03-21at13.13.31.png|https://cdn.shopify.com/s/files/1/1137/7574/products/Screenshot2023-03-21at13.13.23.png|https://cdn.shopify.com/s/files/1/1137/7574/products/Screenshot2023-03-21at12.28.09_97e164de-79ab-4bf4-a4df-a0809f473e01.png|https://cdn.shopify.com/s/files/1/1137/7574/products/Screenshot2023-03-21at12.28.17_8d3413a1-2a42-46cb-88aa-6ae07e19e703.png	<meta charset="utf-8"> <p>Check out the statement making peter pan style collar on the Blooming Collar Cardigan from Chiot! </p> <ul> <li>Button down cardigan with contrasting collar and trim<br> </li> <li>Long sleeves</li> <li>50% cotton, 45% poly, 5% spandex</li> <li>Hand wash in cold water, dry flat</li> </ul>	
8176353804585	44669416243497	Blooming Collar Cardigan Violet	Chiot	Shirts	28.00	CHBESHPU03		113.0	g	[Size,M]	[Color,Violet]		http://www.myStore.com/products/	https://cdn.shopify.com/s/files/1/1137/7574/products/Screenshot2023-03-21at13.13.06.png	https://cdn.shopify.com/s/files/1/1137/7574/products/Screenshot2023-03-21at13.13.15.png|https://cdn.shopify.com/s/files/1/1137/7574/products/Screenshot2023-03-21at13.12.57.png|https://cdn.shopify.com/s/files/1/1137/7574/products/Screenshot2023-03-21at13.12.37.png|https://cdn.shopify.com/s/files/1/1137/7574/products/Screenshot2023-03-21at13.12.47.png|https://cdn.shopify.com/s/files/1/1137/7574/products/Screenshot2023-03-21at13.13.31.png|https://cdn.shopify.com/s/files/1/1137/7574/products/Screenshot2023-03-21at13.13.23.png|https://cdn.shopify.com/s/files/1/1137/7574/products/Screenshot2023-03-21at12.28.09_97e164de-79ab-4bf4-a4df-a0809f473e01.png|https://cdn.shopify.com/s/files/1/1137/7574/products/Screenshot2023-03-21at12.28.17_8d3413a1-2a42-46cb-88aa-6ae07e19e703.png	<meta charset="utf-8"> <p>Check out the statement making peter pan style collar on the Blooming Collar Cardigan from Chiot! </p> <ul> <li>Button down cardigan with contrasting collar and trim<br> </li> <li>Long sleeves</li> <li>50% cotton, 45% poly, 5% spandex</li> <li>Hand wash in cold water, dry flat</li> </ul>	
8176353804585	44669416276265	Blooming Collar Cardigan Violet	Chiot	Shirts	28.00	CHBESHPU04		113.0	g	[Size,L]	[Color,Violet]		http://www.myStore.com/products/	https://cdn.shopify.com/s/files/1/1137/7574/products/Screenshot2023-03-21at13.13.06.png	https://cdn.shopify.com/s/files/1/1137/7574/products/Screenshot2023-03-21at13.13.15.png|https://cdn.shopify.com/s/files/1/1137/7574/products/Screenshot2023-03-21at13.12.57.png|https://cdn.shopify.com/s/files/1/1137/7574/products/Screenshot2023-03-21at13.12.37.png|https://cdn.shopify.com/s/files/1/1137/7574/products/Screenshot2023-03-21at13.12.47.png|https://cdn.shopify.com/s/files/1/1137/7574/products/Screenshot2023-03-21at13.13.31.png|https://cdn.shopify.com/s/files/1/1137/7574/products/Screenshot2023-03-21at13.13.23.png|https://cdn.shopify.com/s/files/1/1137/7574/products/Screenshot2023-03-21at12.28.09_97e164de-79ab-4bf4-a4df-a0809f473e01.png|https://cdn.shopify.com/s/files/1/1137/7574/products/Screenshot2023-03-21at12.28.17_8d3413a1-2a42-46cb-88aa-6ae07e19e703.png	<meta charset="utf-8"> <p>Check out the statement making peter pan style collar on the Blooming Collar Cardigan from Chiot! </p> <ul> <li>Button down cardigan with contrasting collar and trim<br> </li> <li>Long sleeves</li> <li>50% cotton, 45% poly, 5% spandex</li> <li>Hand wash in cold water, dry flat</li> </ul>	
8176353804585	44669416309033	Blooming Collar Cardigan Violet	Chiot	Shirts	28.00	CHBESHPU05		113.0	g	[Size,XL]	[Color,Violet]		http://www.myStore.com/products/	https://cdn.shopify.com/s/files/1/1137/7574/products/Screenshot2023-03-21at13.13.06.png	https://cdn.shopify.com/s/files/1/1137/7574/products/Screenshot2023-03-21at13.13.15.png|https://cdn.shopify.com/s/files/1/1137/7574/products/Screenshot2023-03-21at13.12.57.png|https://cdn.shopify.com/s/files/1/1137/7574/products/Screenshot2023-03-21at13.12.37.png|https://cdn.shopify.com/s/files/1/1137/7574/products/Screenshot2023-03-21at13.12.47.png|https://cdn.shopify.com/s/files/1/1137/7574/products/Screenshot2023-03-21at13.13.31.png|https://cdn.shopify.com/s/files/1/1137/7574/products/Screenshot2023-03-21at13.13.23.png|https://cdn.shopify.com/s/files/1/1137/7574/products/Screenshot2023-03-21at12.28.09_97e164de-79ab-4bf4-a4df-a0809f473e01.png|https://cdn.shopify.com/s/files/1/1137/7574/products/Screenshot2023-03-21at12.28.17_8d3413a1-2a42-46cb-88aa-6ae07e19e703.png	<meta charset="utf-8"> <p>Check out the statement making peter pan style collar on the Blooming Collar Cardigan from Chiot! </p> <ul> <li>Button down cardigan with contrasting collar and trim<br> </li> <li>Long sleeves</li> <li>50% cotton, 45% poly, 5% spandex</li> <li>Hand wash in cold water, dry flat</li> </ul>	
8176353804585	44669416341801	Blooming Collar Cardigan Violet	Chiot	Shirts	28.00	CHBESHPU06		113.0	g	[Size,XXL]	[Color,Violet]		http://www.myStore.com/products/	https://cdn.shopify.com/s/files/1/1137/7574/products/Screenshot2023-03-21at13.13.06.png	https://cdn.shopify.com/s/files/1/1137/7574/products/Screenshot2023-03-21at13.13.15.png|https://cdn.shopify.com/s/files/1/1137/7574/products/Screenshot2023-03-21at13.12.57.png|https://cdn.shopify.com/s/files/1/1137/7574/products/Screenshot2023-03-21at13.12.37.png|https://cdn.shopify.com/s/files/1/1137/7574/products/Screenshot2023-03-21at13.12.47.png|https://cdn.shopify.com/s/files/1/1137/7574/products/Screenshot2023-03-21at13.13.31.png|https://cdn.shopify.com/s/files/1/1137/7574/products/Screenshot2023-03-21at13.13.23.png|https://cdn.shopify.com/s/files/1/1137/7574/products/Screenshot2023-03-21at12.28.09_97e164de-79ab-4bf4-a4df-a0809f473e01.png|https://cdn.shopify.com/s/files/1/1137/7574/products/Screenshot2023-03-21at12.28.17_8d3413a1-2a42-46cb-88aa-6ae07e19e703.png	<meta charset="utf-8"> <p>Check out the statement making peter pan style collar on the Blooming Collar Cardigan from Chiot! </p> <ul> <li>Button down cardigan with contrasting collar and trim<br> </li> <li>Long sleeves</li> <li>50% cotton, 45% poly, 5% spandex</li> <li>Hand wash in cold water, dry flat</li> </ul>	
8158042456361	44594188747049	Blooming Plaid Easter Dog Bandana	The Foggy Dog	Scarves	26.00	FDBLSCMU02		0.0	lb	[Size,S]	[Color,Pastel Multi]		http://www.myStore.com/products/	https://cdn.shopify.com/s/files/1/1137/7574/products/bloom.webp	https://cdn.shopify.com/s/files/1/1137/7574/products/bloom2.webp|https://cdn.shopify.com/s/files/1/1137/7574/products/bloom3.webp	<p><meta charset="utf-8"><span data-mce-fragment="1"><span class="excerpt" data-mce-fragment="1"><meta charset="utf-8">A fresh plaid in shades of pink, periwinkle, mint and coral. The perfect compliment to your Spring display! </span></span></p> <ul> <li>Unique triangle-tie shape makes this bandana easy to tie on (no folding needed)</li> <li>100% premium cotton poplin</li> <li>Blue merrow hem</li> <li>Made in the USA with love</li> <li> <meta charset="utf-8"> <span>Machine wash cold, air dry flat</span> </li> </ul> <p><span>Please measure your dog's neck to ensure a perfect fit. When in doubt, size up!</span></p> <ul> <li><span>Small: Fits necks up to 13", measures 7" top to point</span></li> <li><span>Medium: Fits necks up to 18", measures 9.5" top to point</span></li> <li><span>Large: Fits necks up to 22", measures 11.5" top to point</span></li> </ul>	
8158042456361	44594188779817	Blooming Plaid Easter Dog Bandana	The Foggy Dog	Scarves	26.00	FDBLSCMU03		0.0	lb	[Size,M]	[Color,Pastel Multi]		http://www.myStore.com/products/	https://cdn.shopify.com/s/files/1/1137/7574/products/bloom.webp	https://cdn.shopify.com/s/files/1/1137/7574/products/bloom2.webp|https://cdn.shopify.com/s/files/1/1137/7574/products/bloom3.webp	<p><meta charset="utf-8"><span data-mce-fragment="1"><span class="excerpt" data-mce-fragment="1"><meta charset="utf-8">A fresh plaid in shades of pink, periwinkle, mint and coral. The perfect compliment to your Spring display! </span></span></p> <ul> <li>Unique triangle-tie shape makes this bandana easy to tie on (no folding needed)</li> <li>100% premium cotton poplin</li> <li>Blue merrow hem</li> <li>Made in the USA with love</li> <li> <meta charset="utf-8"> <span>Machine wash cold, air dry flat</span> </li> </ul> <p><span>Please measure your dog's neck to ensure a perfect fit. When in doubt, size up!</span></p> <ul> <li><span>Small: Fits necks up to 13", measures 7" top to point</span></li> <li><span>Medium: Fits necks up to 18", measures 9.5" top to point</span></li> <li><span>Large: Fits necks up to 22", measures 11.5" top to point</span></li> </ul>	
8158042456361	44594188812585	Blooming Plaid Easter Dog Bandana	The Foggy Dog	Scarves	26.00	FDBLSCMU04		0.0	lb	[Size,L]	[Color,Pastel Multi]		http://www.myStore.com/products/	https://cdn.shopify.com/s/files/1/1137/7574/products/bloom.webp	https://cdn.shopify.com/s/files/1/1137/7574/products/bloom2.webp|https://cdn.shopify.com/s/files/1/1137/7574/products/bloom3.webp	<p><meta charset="utf-8"><span data-mce-fragment="1"><span class="excerpt" data-mce-fragment="1"><meta charset="utf-8">A fresh plaid in shades of pink, periwinkle, mint and coral. The perfect compliment to your Spring display! </span></span></p> <ul> <li>Unique triangle-tie shape makes this bandana easy to tie on (no folding needed)</li> <li>100% premium cotton poplin</li> <li>Blue merrow hem</li> <li>Made in the USA with love</li> <li> <meta charset="utf-8"> <span>Machine wash cold, air dry flat</span> </li> </ul> <p><span>Please measure your dog's neck to ensure a perfect fit. When in doubt, size up!</span></p> <ul> <li><span>Small: Fits necks up to 13", measures 7" top to point</span></li> <li><span>Medium: Fits necks up to 18", measures 9.5" top to point</span></li> <li><span>Large: Fits necks up to 22", measures 11.5" top to point</span></li> </ul>	
9446062391593	49124489396521	Blue Travel Water Bottle	Springer	Bowls	20.00			108.0	g	[Color,Blue]			http://www.myStore.com/products/	https://cdn.shopify.com/s/files/1/1137/7574/files/springer4.webp	https://cdn.shopify.com/s/files/1/1137/7574/files/springer7.webp|https://cdn.shopify.com/s/files/1/1137/7574/files/springer1.webp	<p><span data-test-id="accordion-text" class="_1ntfbzc4 _1ntfbzc18 _1ntfbzc19 _1ntfbzc1j _1ntfbzc1r _1ntfbzc1u _1ntfbzc5 sc-43b0d28d-3 iNqSau">The perfect solution for keeping your dog hydrated on-the-go. Designed for your dog to drink fresh water from the attached bowl without wasting a drop. Simply squeeze the bottle with one hand to fill the bowl and release to drain the excess water back in. The leak-tight innovative bottle includes a carabiner for easy clipping to your backpack, bag, or leash — ideal for hikes, beach visits, road trips, and walks around the neighborhood. </span></p> <p><span data-test-id="accordion-text" class="_1ntfbzc4 _1ntfbzc18 _1ntfbzc19 _1ntfbzc1j _1ntfbzc1r _1ntfbzc1u _1ntfbzc5 sc-43b0d28d-3 iNqSau">Features: <br></span><span data-test-id="accordion-text" class="_1ntfbzc4 _1ntfbzc18 _1ntfbzc19 _1ntfbzc1j _1ntfbzc1r _1ntfbzc1u _1ntfbzc5 sc-43b0d28d-3 iNqSau">- Squeeze to hydrate &amp; release to drain <br>- Perfect for walks, runs, hikes + travel <br>- Leak-tight shut off <br>- Includes a carabiner <br>- Food Safe &amp; BPA-Free <br>- No water wasted <br>- Dishwasher safe <br></span></p> <p><span data-test-id="accordion-text" class="_1ntfbzc4 _1ntfbzc18 _1ntfbzc19 _1ntfbzc1j _1ntfbzc1r _1ntfbzc1u _1ntfbzc5 sc-43b0d28d-3 iNqSau">Specs - Holds 15oz <br>-7.5" tall x 3" bottom diameter <br>- Weighs 3.6oz  </span></p> <!---->	
4888135008358	31986303795302	Bolt Bite Blush	Wild One	Toys	13.00	WOBOPITO99		0.6	lb	[Color,Blush]			http://www.myStore.com/products/	https://cdn.shopify.com/s/files/1/1137/7574/products/WO_blush_bolt_bite.jpg	https://cdn.shopify.com/s/files/1/1137/7574/products/WO_blush_bolt_bite_3.jpg|https://cdn.shopify.com/s/files/1/1137/7574/products/WO_blush_bolt_bite_2.jpg|https://cdn.shopify.com/s/files/1/1137/7574/products/WO_blush_bolt_bite_4.jpg	<div></div> <meta charset="utf-8"> <div style="line-height: 1.5; display: inline !important;"> <div style="display: inline !important;"> <meta charset="utf-8"> <div> <div> <meta charset="utf-8"> <span>The bolt bite is the ultimate chew toy with a reinforced center, two elbows for engaging paw-play, and open ends for hiding treats. Whether you have a strong-jawed dog or a teething puppy, the bolt bite is made for all shapes, sizes and ages. Made with 100% natural rubber that’s BPA-free and tested to meet food-safe standards. 8.3" x 8.3". 1.2" diameter. 0.5 lbs.</span><br> </div> </div> </div> </div> <p> </p>	
6563140501606	39300670554214	Bolt Bite Lilac	Wild One	Toys	13.00	WOBOTOPU99		0.6	lb	[Color,Lilac]			http://www.myStore.com/products/	https://cdn.shopify.com/s/files/1/1137/7574/products/Screenshot2021-04-16at17.19.30.png	https://cdn.shopify.com/s/files/1/1137/7574/products/Screenshot2021-04-16at17.19.42.png|https://cdn.shopify.com/s/files/1/1137/7574/products/Screenshot2021-04-16at17.19.50.png|https://cdn.shopify.com/s/files/1/1137/7574/products/Screenshot2021-04-16at17.20.05.png|https://cdn.shopify.com/s/files/1/1137/7574/products/Screenshot2021-04-16at17.20.18.png|https://cdn.shopify.com/s/files/1/1137/7574/products/Screenshot2021-04-16at17.20.28.png	<div></div> <meta charset="utf-8"> <div style="line-height: 1.5; display: inline !important;"> <div style="display: inline !important;"> <meta charset="utf-8"> <div> <div> <meta charset="utf-8"> <span>The bolt bite is the ultimate chew toy with a reinforced center, two elbows for engaging paw-play, and open ends for hiding treats. Whether you have a strong-jawed dog or a teething puppy, the bolt bite is made for all shapes, sizes and ages. Made with 100% natural rubber that’s BPA-free and tested to meet food-safe standards. </span> </div> <div> <ul> <li><span>8.3" x 8.3". 1.2" diameter. 0.5 lbs.</span></li> </ul> </div> </div> </div> </div> <p> </p>	
4888132124774	31986293309542	Bolt Bite Navy	Wild One	Toys	13.00	WOBONATO99		0.6	lb	[Color,Navy]			http://www.myStore.com/products/	https://cdn.shopify.com/s/files/1/1137/7574/products/WO_navy_bolt_bite.jpg	https://cdn.shopify.com/s/files/1/1137/7574/products/WO_navy_bolt_bite_2.jpg|https://cdn.shopify.com/s/files/1/1137/7574/products/WO_navy_bolt_bite_3.jpg|https://cdn.shopify.com/s/files/1/1137/7574/products/WO_navy_bolt_bite_4.jpg	<div></div> <meta charset="utf-8"> <div style="line-height: 1.5; display: inline !important;"> <div style="display: inline !important;"> <meta charset="utf-8"> <div> <div> <meta charset="utf-8"> <span>The bolt bite is the ultimate chew toy with a reinforced center, two elbows for engaging paw-play, and open ends for hiding treats. Whether you have a strong-jawed dog or a teething puppy, the bolt bite is made for all shapes, sizes and ages. Made with 100% natural rubber that’s BPA-free and tested to meet food-safe standards. 8.3" x 8.3". 1.2" diameter. 0.5 lbs.</span><br> </div> </div> </div> </div> <p> </p>	
4876050202726	31947812077670	Bolt Bite Tan	Wild One	Toys	13.00	WOBOTATO99		0.6	lb	[Color,Tan]			http://www.myStore.com/products/	https://cdn.shopify.com/s/files/1/1137/7574/products/WO_tan_bolt_bite_1.jpg	https://cdn.shopify.com/s/files/1/1137/7574/products/WO_tan_bolt_bite_2.jpg|https://cdn.shopify.com/s/files/1/1137/7574/products/WO_tan_bolt_bite_3.jpg|https://cdn.shopify.com/s/files/1/1137/7574/products/WO_tan_bolt_bite_4.jpg	<div></div> <meta charset="utf-8"> <div style="line-height: 1.5; display: inline !important;"> <div style="display: inline !important;"> <meta charset="utf-8"> <div> <div> <meta charset="utf-8"> <span>The bolt bite is the ultimate chew toy with a reinforced center, two elbows for engaging paw-play, and open ends for hiding treats. Whether you have a strong-jawed dog or a teething puppy, the bolt bite is made for all shapes, sizes and ages. Made with 100% natural rubber that’s BPA-free and tested to meet food-safe standards. 8.3" x 8.3". 1.2" diameter. 0.5 lbs.</span><br> </div> </div> </div> </div> <p> </p>	
6543212544102	39261634625638	Bow Leather Collar Brown	Pipolli	Collar	58.00	PIBOCOBR02		103.0	g	[Size,Small]	[Color,Saddle Brown]		http://www.myStore.com/products/	https://cdn.shopify.com/s/files/1/1137/7574/products/Screenshot2021-03-10at01.03.52.png	https://cdn.shopify.com/s/files/1/1137/7574/products/Screenshot2021-03-10at01.04.02.png|https://cdn.shopify.com/s/files/1/1137/7574/products/Screenshot2021-03-10at01.04.10.png|https://cdn.shopify.com/s/files/1/1137/7574/products/Screenshot2021-03-10at01.02.35_e86fdf2e-a049-4230-a28e-92d4bcc7b63b.png	<meta charset="utf-8"> <p><meta charset="utf-8"><span data-mce-fragment="1">Pipolli's chic Bow Leather Collar is made of high quality, smooth Italian leather. Features solid brass hardware and a removable bow</span>. Pairs nicely with the <a href="https://sirdogwood.com/collections/leashes/products/bow-leather-leash-brown">matching leash.</a></p> <ul> <li><span>Adjustable collar</span></li> <li><span>Removable bow accent</span></li> <li><span>100% leather</span></li> <li><span>Made in the USA</span></li> </ul> <meta charset="utf-8"> <h2 class="cms-page__title"></h2>	
6543212544102	39261634658406	Bow Leather Collar Brown	Pipolli	Collar	58.00	PIBOCOBR03		103.0	g	[Size,Medium]	[Color,Saddle Brown]		http://www.myStore.com/products/	https://cdn.shopify.com/s/files/1/1137/7574/products/Screenshot2021-03-10at01.03.52.png	https://cdn.shopify.com/s/files/1/1137/7574/products/Screenshot2021-03-10at01.04.02.png|https://cdn.shopify.com/s/files/1/1137/7574/products/Screenshot2021-03-10at01.04.10.png|https://cdn.shopify.com/s/files/1/1137/7574/products/Screenshot2021-03-10at01.02.35_e86fdf2e-a049-4230-a28e-92d4bcc7b63b.png	<meta charset="utf-8"> <p><meta charset="utf-8"><span data-mce-fragment="1">Pipolli's chic Bow Leather Collar is made of high quality, smooth Italian leather. Features solid brass hardware and a removable bow</span>. Pairs nicely with the <a href="https://sirdogwood.com/collections/leashes/products/bow-leather-leash-brown">matching leash.</a></p> <ul> <li><span>Adjustable collar</span></li> <li><span>Removable bow accent</span></li> <li><span>100% leather</span></li> <li><span>Made in the USA</span></li> </ul> <meta charset="utf-8"> <h2 class="cms-page__title"></h2>	
6543212544102	39261634691174	Bow Leather Collar Brown	Pipolli	Collar	58.00	PIBOCOBR04		103.0	g	[Size,Large]	[Color,Saddle Brown]		http://www.myStore.com/products/	https://cdn.shopify.com/s/files/1/1137/7574/products/Screenshot2021-03-10at01.03.52.png	https://cdn.shopify.com/s/files/1/1137/7574/products/Screenshot2021-03-10at01.04.02.png|https://cdn.shopify.com/s/files/1/1137/7574/products/Screenshot2021-03-10at01.04.10.png|https://cdn.shopify.com/s/files/1/1137/7574/products/Screenshot2021-03-10at01.02.35_e86fdf2e-a049-4230-a28e-92d4bcc7b63b.png	<meta charset="utf-8"> <p><meta charset="utf-8"><span data-mce-fragment="1">Pipolli's chic Bow Leather Collar is made of high quality, smooth Italian leather. Features solid brass hardware and a removable bow</span>. Pairs nicely with the <a href="https://sirdogwood.com/collections/leashes/products/bow-leather-leash-brown">matching leash.</a></p> <ul> <li><span>Adjustable collar</span></li> <li><span>Removable bow accent</span></li> <li><span>100% leather</span></li> <li><span>Made in the USA</span></li> </ul> <meta charset="utf-8"> <h2 class="cms-page__title"></h2>	
6562789195878	39300120707174	Bow Leather Collar Mint	Pipolli	Collar	58.00	PIBOCOGR02		103.0	g	[Size,Small]	[Color,Mint Green]		http://www.myStore.com/products/	https://cdn.shopify.com/s/files/1/1137/7574/products/Screenshot2021-04-16at10.58.22.png	https://cdn.shopify.com/s/files/1/1137/7574/products/image_2000x_e52710e2-66bb-4acb-a235-491705d45677.jpg|https://cdn.shopify.com/s/files/1/1137/7574/products/IMG_2009_2_2000x_da910561-ccc9-4c07-bc46-ecf651a4b7c9.jpg|https://cdn.shopify.com/s/files/1/1137/7574/products/PI_mint_4.jpg|https://cdn.shopify.com/s/files/1/1137/7574/products/image_750x_03b52ab5-0b71-4987-bd89-35a5aec0b863.jpg|https://cdn.shopify.com/s/files/1/1137/7574/products/Screenshot2021-04-16at11.31.05.png	<meta charset="utf-8"> <p><span data-mce-fragment="1">Pipolli's chic Bow Leather Collar is made of high quality, smooth Italian leather. Features solid brass hardware and a removable bow</span>. Pairs nicely with the <a href="https://sirdogwood.com/collections/leashes/products/leather-leash-mint">matching leash.</a></p> <ul> <li><span>Adjustable collar</span></li> <li><span>Removable bow accent</span></li> <li><span>100% leather</span></li> <li><span>Made in the USA</span></li> </ul> <ul></ul> <meta charset="utf-8"> <h2 class="cms-page__title"></h2>	
6562789195878	39300120739942	Bow Leather Collar Mint	Pipolli	Collar	58.00	PIBOCOGR03		103.0	g	[Size,Medium]	[Color,Mint Green]		http://www.myStore.com/products/	https://cdn.shopify.com/s/files/1/1137/7574/products/Screenshot2021-04-16at10.58.22.png	https://cdn.shopify.com/s/files/1/1137/7574/products/image_2000x_e52710e2-66bb-4acb-a235-491705d45677.jpg|https://cdn.shopify.com/s/files/1/1137/7574/products/IMG_2009_2_2000x_da910561-ccc9-4c07-bc46-ecf651a4b7c9.jpg|https://cdn.shopify.com/s/files/1/1137/7574/products/PI_mint_4.jpg|https://cdn.shopify.com/s/files/1/1137/7574/products/image_750x_03b52ab5-0b71-4987-bd89-35a5aec0b863.jpg|https://cdn.shopify.com/s/files/1/1137/7574/products/Screenshot2021-04-16at11.31.05.png	<meta charset="utf-8"> <p><span data-mce-fragment="1">Pipolli's chic Bow Leather Collar is made of high quality, smooth Italian leather. Features solid brass hardware and a removable bow</span>. Pairs nicely with the <a href="https://sirdogwood.com/collections/leashes/products/leather-leash-mint">matching leash.</a></p> <ul> <li><span>Adjustable collar</span></li> <li><span>Removable bow accent</span></li> <li><span>100% leather</span></li> <li><span>Made in the USA</span></li> </ul> <ul></ul> <meta charset="utf-8"> <h2 class="cms-page__title"></h2>	
6562789195878	39300120772710	Bow Leather Collar Mint	Pipolli	Collar	58.00	PIBOCOGR04		103.0	g	[Size,Large]	[Color,Mint Green]		http://www.myStore.com/products/	https://cdn.shopify.com/s/files/1/1137/7574/products/Screenshot2021-04-16at10.58.22.png	https://cdn.shopify.com/s/files/1/1137/7574/products/image_2000x_e52710e2-66bb-4acb-a235-491705d45677.jpg|https://cdn.shopify.com/s/files/1/1137/7574/products/IMG_2009_2_2000x_da910561-ccc9-4c07-bc46-ecf651a4b7c9.jpg|https://cdn.shopify.com/s/files/1/1137/7574/products/PI_mint_4.jpg|https://cdn.shopify.com/s/files/1/1137/7574/products/image_750x_03b52ab5-0b71-4987-bd89-35a5aec0b863.jpg|https://cdn.shopify.com/s/files/1/1137/7574/products/Screenshot2021-04-16at11.31.05.png	<meta charset="utf-8"> <p><span data-mce-fragment="1">Pipolli's chic Bow Leather Collar is made of high quality, smooth Italian leather. Features solid brass hardware and a removable bow</span>. Pairs nicely with the <a href="https://sirdogwood.com/collections/leashes/products/leather-leash-mint">matching leash.</a></p> <ul> <li><span>Adjustable collar</span></li> <li><span>Removable bow accent</span></li> <li><span>100% leather</span></li> <li><span>Made in the USA</span></li> </ul> <ul></ul> <meta charset="utf-8"> <h2 class="cms-page__title"></h2>	
11191935635	39261632856166	Bow Leather Collar Pink	Pipolli	Collar	58.00	PIBOCOPI02		103.0	g	[Size,Small]	[Color,Blush Pink]		http://www.myStore.com/products/	https://cdn.shopify.com/s/files/1/1137/7574/products/Screenshot2021-03-10at13.37.31.png	https://cdn.shopify.com/s/files/1/1137/7574/products/Screenshot2021-02-06at13.24.16.png|https://cdn.shopify.com/s/files/1/1137/7574/products/Screenshot2021-03-10at01.02.23.png|https://cdn.shopify.com/s/files/1/1137/7574/products/Screenshot2021-02-06at13.24.06.png|https://cdn.shopify.com/s/files/1/1137/7574/products/Screenshot2021-02-06at13.20.23.png|https://cdn.shopify.com/s/files/1/1137/7574/products/Screenshot2021-02-06at13.20.36.png|https://cdn.shopify.com/s/files/1/1137/7574/products/Screenshot2021-03-10at01.04.59.png	<meta charset="utf-8"> <p><span data-mce-fragment="1">Pipolli's chic Bow Leather Collar is made of high quality, smooth Italian leather. Features solid brass hardware and a removable bow</span>. Pairs nicely with the <a href="https://sirdogwood.com/collections/leashes/products/leather-leash-pink">matching leash.</a></p> <ul> <li><span>Adjustable collar</span></li> <li><span>Removable bow accent</span></li> <li><span>100% leather</span></li> <li><span>Made in the USA</span></li> </ul> <ul></ul> <meta charset="utf-8"> <h2 class="cms-page__title"></h2>	
11191935635	39261632888934	Bow Leather Collar Pink	Pipolli	Collar	58.00	PIBOCOPI03		103.0	g	[Size,Medium]	[Color,Blush Pink]		http://www.myStore.com/products/	https://cdn.shopify.com/s/files/1/1137/7574/products/Screenshot2021-03-10at13.37.31.png	https://cdn.shopify.com/s/files/1/1137/7574/products/Screenshot2021-02-06at13.24.16.png|https://cdn.shopify.com/s/files/1/1137/7574/products/Screenshot2021-03-10at01.02.23.png|https://cdn.shopify.com/s/files/1/1137/7574/products/Screenshot2021-02-06at13.24.06.png|https://cdn.shopify.com/s/files/1/1137/7574/products/Screenshot2021-02-06at13.20.23.png|https://cdn.shopify.com/s/files/1/1137/7574/products/Screenshot2021-02-06at13.20.36.png|https://cdn.shopify.com/s/files/1/1137/7574/products/Screenshot2021-03-10at01.04.59.png	<meta charset="utf-8"> <p><span data-mce-fragment="1">Pipolli's chic Bow Leather Collar is made of high quality, smooth Italian leather. Features solid brass hardware and a removable bow</span>. Pairs nicely with the <a href="https://sirdogwood.com/collections/leashes/products/leather-leash-pink">matching leash.</a></p> <ul> <li><span>Adjustable collar</span></li> <li><span>Removable bow accent</span></li> <li><span>100% leather</span></li> <li><span>Made in the USA</span></li> </ul> <ul></ul> <meta charset="utf-8"> <h2 class="cms-page__title"></h2>	
11191935635	39261632921702	Bow Leather Collar Pink	Pipolli	Collar	58.00	PIBOCOPI04		103.0	g	[Size,Large]	[Color,Blush Pink]		http://www.myStore.com/products/	https://cdn.shopify.com/s/files/1/1137/7574/products/Screenshot2021-03-10at13.37.31.png	https://cdn.shopify.com/s/files/1/1137/7574/products/Screenshot2021-02-06at13.24.16.png|https://cdn.shopify.com/s/files/1/1137/7574/products/Screenshot2021-03-10at01.02.23.png|https://cdn.shopify.com/s/files/1/1137/7574/products/Screenshot2021-02-06at13.24.06.png|https://cdn.shopify.com/s/files/1/1137/7574/products/Screenshot2021-02-06at13.20.23.png|https://cdn.shopify.com/s/files/1/1137/7574/products/Screenshot2021-02-06at13.20.36.png|https://cdn.shopify.com/s/files/1/1137/7574/products/Screenshot2021-03-10at01.04.59.png	<meta charset="utf-8"> <p><span data-mce-fragment="1">Pipolli's chic Bow Leather Collar is made of high quality, smooth Italian leather. Features solid brass hardware and a removable bow</span>. Pairs nicely with the <a href="https://sirdogwood.com/collections/leashes/products/leather-leash-pink">matching leash.</a></p> <ul> <li><span>Adjustable collar</span></li> <li><span>Removable bow accent</span></li> <li><span>100% leather</span></li> <li><span>Made in the USA</span></li> </ul> <ul></ul> <meta charset="utf-8"> <h2 class="cms-page__title"></h2>	
6619256848486	39402876076134	Bowery Raincoat Navy	Pehom NYC	Jacket	65.00	PEYOJABU02		0.3	lb	[Size,Small]	[Color,Navy]		http://www.myStore.com/products/	https://cdn.shopify.com/s/files/1/1137/7574/products/Screenshot2021-08-07at07.49.31.png	https://cdn.shopify.com/s/files/1/1137/7574/products/Screenshot2021-08-07at07.49.23.png|https://cdn.shopify.com/s/files/1/1137/7574/products/Screenshot2021-08-07at07.49.12.png	<p> </p> <div data-mce-fragment="1"> <meta charset="utf-8"> <div data-mce-fragment="1">Keep your pup nice and dry with Pehom's Raincoat in navy blue.</div> <div data-mce-fragment="1"> <ul> <li>Water repellant fabric</li> <li>Snap closure on chest</li> <li>Large hood and small back pocket with white logo attached to flap</li> <li>Gunmetal hardware belt with adjustable velcro </li> </ul> </div> </div> <div data-mce-fragment="1"> <ul></ul> <br> </div>	
6619256848486	39402876174438	Bowery Raincoat Navy	Pehom NYC	Jacket	65.00	PEYOJABU05		0.4	lb	[Size,X-Large]	[Color,Navy]		http://www.myStore.com/products/	https://cdn.shopify.com/s/files/1/1137/7574/products/Screenshot2021-08-07at07.49.31.png	https://cdn.shopify.com/s/files/1/1137/7574/products/Screenshot2021-08-07at07.49.23.png|https://cdn.shopify.com/s/files/1/1137/7574/products/Screenshot2021-08-07at07.49.12.png	<p> </p> <div data-mce-fragment="1"> <meta charset="utf-8"> <div data-mce-fragment="1">Keep your pup nice and dry with Pehom's Raincoat in navy blue.</div> <div data-mce-fragment="1"> <ul> <li>Water repellant fabric</li> <li>Snap closure on chest</li> <li>Large hood and small back pocket with white logo attached to flap</li> <li>Gunmetal hardware belt with adjustable velcro </li> </ul> </div> </div> <div data-mce-fragment="1"> <ul></ul> <br> </div>	
9455279604009	49156230775081	Brighton Raincoat	Lambwolf Collective	Jacket	53.00	LCBRJABE01		363.0	g	[Size,XS]	[Color,Beige]		http://www.myStore.com/products/	https://cdn.shopify.com/s/files/1/1137/7574/files/1d5e44af28bd3b351eb16e7c3bedd597a58c334ffcdcac5ba6e20aa9f5a3469f_1.webp	https://cdn.shopify.com/s/files/1/1137/7574/files/06eb9a1d770ce5570e589dda96dbd19553f2db716c8f7188f4434b9b60f44f5b.webp|https://cdn.shopify.com/s/files/1/1137/7574/files/63073240140992dcf5480cc379f4e2de2503288ac23456400e255b6c3099d0f3.webp|https://cdn.shopify.com/s/files/1/1137/7574/files/e392a57a53b43092cdfa9f675cdc923b8db638ed1ff928b77260ac4feb292e5c_1.webp|https://cdn.shopify.com/s/files/1/1137/7574/files/fa32b204ec9ece393d245385d5d97c981182da372d06d43e41797cdcabbbcb25.webp	<p><meta charset="utf-8"><meta charset="utf-8"><span>The new BRIGHTON rain coat is waterproof and soft. The stretchy sleeve cuffs and bottom protect your pup from splashes and the hood is made adjustable for an easy fit. It is also packable into a pouch that is attached to the liner of the coat! </span></p> <p><span>There is a collar attachment opening on the neck and a harness attachment opening on the back.</span></p> <p><span>The collar can either be bottom down or up for an extra sharp look and a front button closure keeps the zipper intact while featuring a loop for name tags. </span></p> <p><span>This lightweight coat is the perfect urban outwear to keep your pup clean and dry from seasonal showers! </span></p> <ul> <li><span>Machine wash cold in mesh laundry bag, low spin and line dry </span></li> <li><span>Use toothpaste and brush to remove stains</span></li> <li><span>100% nylon</span></li> </ul>	
9455279604009	49156230807849	Brighton Raincoat	Lambwolf Collective	Jacket	53.00	LCBRJABE02		363.0	g	[Size,S]	[Color,Beige]		http://www.myStore.com/products/	https://cdn.shopify.com/s/files/1/1137/7574/files/1d5e44af28bd3b351eb16e7c3bedd597a58c334ffcdcac5ba6e20aa9f5a3469f_1.webp	https://cdn.shopify.com/s/files/1/1137/7574/files/06eb9a1d770ce5570e589dda96dbd19553f2db716c8f7188f4434b9b60f44f5b.webp|https://cdn.shopify.com/s/files/1/1137/7574/files/63073240140992dcf5480cc379f4e2de2503288ac23456400e255b6c3099d0f3.webp|https://cdn.shopify.com/s/files/1/1137/7574/files/e392a57a53b43092cdfa9f675cdc923b8db638ed1ff928b77260ac4feb292e5c_1.webp|https://cdn.shopify.com/s/files/1/1137/7574/files/fa32b204ec9ece393d245385d5d97c981182da372d06d43e41797cdcabbbcb25.webp	<p><meta charset="utf-8"><meta charset="utf-8"><span>The new BRIGHTON rain coat is waterproof and soft. The stretchy sleeve cuffs and bottom protect your pup from splashes and the hood is made adjustable for an easy fit. It is also packable into a pouch that is attached to the liner of the coat! </span></p> <p><span>There is a collar attachment opening on the neck and a harness attachment opening on the back.</span></p> <p><span>The collar can either be bottom down or up for an extra sharp look and a front button closure keeps the zipper intact while featuring a loop for name tags. </span></p> <p><span>This lightweight coat is the perfect urban outwear to keep your pup clean and dry from seasonal showers! </span></p> <ul> <li><span>Machine wash cold in mesh laundry bag, low spin and line dry </span></li> <li><span>Use toothpaste and brush to remove stains</span></li> <li><span>100% nylon</span></li> </ul>	
9455279604009	49156230840617	Brighton Raincoat	Lambwolf Collective	Jacket	53.00	LCBRJABE03		363.0	g	[Size,M]	[Color,Beige]		http://www.myStore.com/products/	https://cdn.shopify.com/s/files/1/1137/7574/files/1d5e44af28bd3b351eb16e7c3bedd597a58c334ffcdcac5ba6e20aa9f5a3469f_1.webp	https://cdn.shopify.com/s/files/1/1137/7574/files/06eb9a1d770ce5570e589dda96dbd19553f2db716c8f7188f4434b9b60f44f5b.webp|https://cdn.shopify.com/s/files/1/1137/7574/files/63073240140992dcf5480cc379f4e2de2503288ac23456400e255b6c3099d0f3.webp|https://cdn.shopify.com/s/files/1/1137/7574/files/e392a57a53b43092cdfa9f675cdc923b8db638ed1ff928b77260ac4feb292e5c_1.webp|https://cdn.shopify.com/s/files/1/1137/7574/files/fa32b204ec9ece393d245385d5d97c981182da372d06d43e41797cdcabbbcb25.webp	<p><meta charset="utf-8"><meta charset="utf-8"><span>The new BRIGHTON rain coat is waterproof and soft. The stretchy sleeve cuffs and bottom protect your pup from splashes and the hood is made adjustable for an easy fit. It is also packable into a pouch that is attached to the liner of the coat! </span></p> <p><span>There is a collar attachment opening on the neck and a harness attachment opening on the back.</span></p> <p><span>The collar can either be bottom down or up for an extra sharp look and a front button closure keeps the zipper intact while featuring a loop for name tags. </span></p> <p><span>This lightweight coat is the perfect urban outwear to keep your pup clean and dry from seasonal showers! </span></p> <ul> <li><span>Machine wash cold in mesh laundry bag, low spin and line dry </span></li> <li><span>Use toothpaste and brush to remove stains</span></li> <li><span>100% nylon</span></li> </ul>	
9455279604009	49156230873385	Brighton Raincoat	Lambwolf Collective	Jacket	53.00	LCBRJABE04		363.0	g	[Size,L]	[Color,Beige]		http://www.myStore.com/products/	https://cdn.shopify.com/s/files/1/1137/7574/files/1d5e44af28bd3b351eb16e7c3bedd597a58c334ffcdcac5ba6e20aa9f5a3469f_1.webp	https://cdn.shopify.com/s/files/1/1137/7574/files/06eb9a1d770ce5570e589dda96dbd19553f2db716c8f7188f4434b9b60f44f5b.webp|https://cdn.shopify.com/s/files/1/1137/7574/files/63073240140992dcf5480cc379f4e2de2503288ac23456400e255b6c3099d0f3.webp|https://cdn.shopify.com/s/files/1/1137/7574/files/e392a57a53b43092cdfa9f675cdc923b8db638ed1ff928b77260ac4feb292e5c_1.webp|https://cdn.shopify.com/s/files/1/1137/7574/files/fa32b204ec9ece393d245385d5d97c981182da372d06d43e41797cdcabbbcb25.webp	<p><meta charset="utf-8"><meta charset="utf-8"><span>The new BRIGHTON rain coat is waterproof and soft. The stretchy sleeve cuffs and bottom protect your pup from splashes and the hood is made adjustable for an easy fit. It is also packable into a pouch that is attached to the liner of the coat! </span></p> <p><span>There is a collar attachment opening on the neck and a harness attachment opening on the back.</span></p> <p><span>The collar can either be bottom down or up for an extra sharp look and a front button closure keeps the zipper intact while featuring a loop for name tags. </span></p> <p><span>This lightweight coat is the perfect urban outwear to keep your pup clean and dry from seasonal showers! </span></p> <ul> <li><span>Machine wash cold in mesh laundry bag, low spin and line dry </span></li> <li><span>Use toothpaste and brush to remove stains</span></li> <li><span>100% nylon</span></li> </ul>	
9455279604009	49156230938921	Brighton Raincoat	Lambwolf Collective	Jacket	53.00	LCBRJABE05		363.0	g	[Size,XL]	[Color,Beige]		http://www.myStore.com/products/	https://cdn.shopify.com/s/files/1/1137/7574/files/1d5e44af28bd3b351eb16e7c3bedd597a58c334ffcdcac5ba6e20aa9f5a3469f_1.webp	https://cdn.shopify.com/s/files/1/1137/7574/files/06eb9a1d770ce5570e589dda96dbd19553f2db716c8f7188f4434b9b60f44f5b.webp|https://cdn.shopify.com/s/files/1/1137/7574/files/63073240140992dcf5480cc379f4e2de2503288ac23456400e255b6c3099d0f3.webp|https://cdn.shopify.com/s/files/1/1137/7574/files/e392a57a53b43092cdfa9f675cdc923b8db638ed1ff928b77260ac4feb292e5c_1.webp|https://cdn.shopify.com/s/files/1/1137/7574/files/fa32b204ec9ece393d245385d5d97c981182da372d06d43e41797cdcabbbcb25.webp	<p><meta charset="utf-8"><meta charset="utf-8"><span>The new BRIGHTON rain coat is waterproof and soft. The stretchy sleeve cuffs and bottom protect your pup from splashes and the hood is made adjustable for an easy fit. It is also packable into a pouch that is attached to the liner of the coat! </span></p> <p><span>There is a collar attachment opening on the neck and a harness attachment opening on the back.</span></p> <p><span>The collar can either be bottom down or up for an extra sharp look and a front button closure keeps the zipper intact while featuring a loop for name tags. </span></p> <p><span>This lightweight coat is the perfect urban outwear to keep your pup clean and dry from seasonal showers! </span></p> <ul> <li><span>Machine wash cold in mesh laundry bag, low spin and line dry </span></li> <li><span>Use toothpaste and brush to remove stains</span></li> <li><span>100% nylon</span></li> </ul>	
9455279604009	49156230971689	Brighton Raincoat	Lambwolf Collective	Jacket	53.00	LCBRJABE06		363.0	g	[Size,XXL]	[Color,Beige]		http://www.myStore.com/products/	https://cdn.shopify.com/s/files/1/1137/7574/files/1d5e44af28bd3b351eb16e7c3bedd597a58c334ffcdcac5ba6e20aa9f5a3469f_1.webp	https://cdn.shopify.com/s/files/1/1137/7574/files/06eb9a1d770ce5570e589dda96dbd19553f2db716c8f7188f4434b9b60f44f5b.webp|https://cdn.shopify.com/s/files/1/1137/7574/files/63073240140992dcf5480cc379f4e2de2503288ac23456400e255b6c3099d0f3.webp|https://cdn.shopify.com/s/files/1/1137/7574/files/e392a57a53b43092cdfa9f675cdc923b8db638ed1ff928b77260ac4feb292e5c_1.webp|https://cdn.shopify.com/s/files/1/1137/7574/files/fa32b204ec9ece393d245385d5d97c981182da372d06d43e41797cdcabbbcb25.webp	<p><meta charset="utf-8"><meta charset="utf-8"><span>The new BRIGHTON rain coat is waterproof and soft. The stretchy sleeve cuffs and bottom protect your pup from splashes and the hood is made adjustable for an easy fit. It is also packable into a pouch that is attached to the liner of the coat! </span></p> <p><span>There is a collar attachment opening on the neck and a harness attachment opening on the back.</span></p> <p><span>The collar can either be bottom down or up for an extra sharp look and a front button closure keeps the zipper intact while featuring a loop for name tags. </span></p> <p><span>This lightweight coat is the perfect urban outwear to keep your pup clean and dry from seasonal showers! </span></p> <ul> <li><span>Machine wash cold in mesh laundry bag, low spin and line dry </span></li> <li><span>Use toothpaste and brush to remove stains</span></li> <li><span>100% nylon</span></li> </ul>	
9455379874089	49156446814505	Cactus Toy	Lambwolf Collective	Toys	20.00	LCCATOBGR02		88.0	g	[Color,Green]			http://www.myStore.com/products/	https://cdn.shopify.com/s/files/1/1137/7574/files/918894749c23cb0b9a328ab6b9705f82ce21c954ea8df9111df69c939eded2a9_1.webp	https://cdn.shopify.com/s/files/1/1137/7574/files/b33db84c45128b479cf7e198d3affaff1fd427b66481d26d0f0e6070d088d4b8.webp|https://cdn.shopify.com/s/files/1/1137/7574/files/3d232b3156203b7d9c82e608d94cad891de8d1747617384553abe56a4b204e52_1.webp|https://cdn.shopify.com/s/files/1/1137/7574/files/7862d32c1f6cd3cd00ce9c1cf2e0adf6c690bd97ed541c8cf5fcebd551deb027_254f8d10-5d29-48bf-84fb-e5bd76b7d688.webp|https://cdn.shopify.com/s/files/1/1137/7574/files/62326bf085fbe61dff80a4edcdef119a0f4af800d3bbebbce9b87150db6f78b1.webp	<p><meta charset="utf-8"><span>This snuffle Cactus toy allows you to hide treats in between the 4 slots and the bottle knitted pot is filled with squeakers! Each pup plays differently and we recommend you to keep a close watch particularly during the first time a new play object is introduced. No toy is completely indestructible, so please supervise the play to ensure safety if you know your pup is not gentle with toys.</span><br><meta charset="utf-8"></p>	
8111987130665	44409285509417	Check Cotton Pajamas Charcoal	Small Stuff	Pajamas	40.00	SSCHPABL01		113.0	g	[Size,XS]	[Color,Charcoal]		http://www.myStore.com/products/	https://cdn.shopify.com/s/files/1/1137/7574/products/Screenshot2023-02-10at14.40.00.png	https://cdn.shopify.com/s/files/1/1137/7574/products/Screenshot2023-02-10at14.24.11.png|https://cdn.shopify.com/s/files/1/1137/7574/products/Screenshot2023-02-10at14.27.33.png|https://cdn.shopify.com/s/files/1/1137/7574/products/Screenshot2023-02-10at14.27.23.png|https://cdn.shopify.com/s/files/1/1137/7574/products/Screenshot2023-02-10at14.23.57.png|https://cdn.shopify.com/s/files/1/1137/7574/products/Screenshot2023-02-10at14.27.14.png	<meta charset="utf-8"><meta charset="utf-8"><span data-mce-fragment="1">The perfect pjs for loungewear or streetwear - Check Pajamas from Small Stuff. </span><span data-mce-fragment="1"></span> <ul data-mce-fragment="1"> <li data-mce-fragment="1">Soft check pjs contrasting piping<br data-mce-fragment="1"> </li> <li data-mce-fragment="1">Long sleeves with collar</li> <li data-mce-fragment="1">Velcro closure</li> <li data-mce-fragment="1">100% cotton</li> <li data-mce-fragment="1">Hand wash cold and dry flat </li> </ul> <br> <ul data-mce-fragment="1"></ul>	
8111987130665	44409285574953	Check Cotton Pajamas Charcoal	Small Stuff	Pajamas	40.00	SSCHPABL02		113.0	g	[Size,S]	[Color,Charcoal]		http://www.myStore.com/products/	https://cdn.shopify.com/s/files/1/1137/7574/products/Screenshot2023-02-10at14.40.00.png	https://cdn.shopify.com/s/files/1/1137/7574/products/Screenshot2023-02-10at14.24.11.png|https://cdn.shopify.com/s/files/1/1137/7574/products/Screenshot2023-02-10at14.27.33.png|https://cdn.shopify.com/s/files/1/1137/7574/products/Screenshot2023-02-10at14.27.23.png|https://cdn.shopify.com/s/files/1/1137/7574/products/Screenshot2023-02-10at14.23.57.png|https://cdn.shopify.com/s/files/1/1137/7574/products/Screenshot2023-02-10at14.27.14.png	<meta charset="utf-8"><meta charset="utf-8"><span data-mce-fragment="1">The perfect pjs for loungewear or streetwear - Check Pajamas from Small Stuff. </span><span data-mce-fragment="1"></span> <ul data-mce-fragment="1"> <li data-mce-fragment="1">Soft check pjs contrasting piping<br data-mce-fragment="1"> </li> <li data-mce-fragment="1">Long sleeves with collar</li> <li data-mce-fragment="1">Velcro closure</li> <li data-mce-fragment="1">100% cotton</li> <li data-mce-fragment="1">Hand wash cold and dry flat </li> </ul> <br> <ul data-mce-fragment="1"></ul>	
8111987130665	44409285607721	Check Cotton Pajamas Charcoal	Small Stuff	Pajamas	40.00	SSCHPABL03		113.0	g	[Size,M]	[Color,Charcoal]		http://www.myStore.com/products/	https://cdn.shopify.com/s/files/1/1137/7574/products/Screenshot2023-02-10at14.40.00.png	https://cdn.shopify.com/s/files/1/1137/7574/products/Screenshot2023-02-10at14.24.11.png|https://cdn.shopify.com/s/files/1/1137/7574/products/Screenshot2023-02-10at14.27.33.png|https://cdn.shopify.com/s/files/1/1137/7574/products/Screenshot2023-02-10at14.27.23.png|https://cdn.shopify.com/s/files/1/1137/7574/products/Screenshot2023-02-10at14.23.57.png|https://cdn.shopify.com/s/files/1/1137/7574/products/Screenshot2023-02-10at14.27.14.png	<meta charset="utf-8"><meta charset="utf-8"><span data-mce-fragment="1">The perfect pjs for loungewear or streetwear - Check Pajamas from Small Stuff. </span><span data-mce-fragment="1"></span> <ul data-mce-fragment="1"> <li data-mce-fragment="1">Soft check pjs contrasting piping<br data-mce-fragment="1"> </li> <li data-mce-fragment="1">Long sleeves with collar</li> <li data-mce-fragment="1">Velcro closure</li> <li data-mce-fragment="1">100% cotton</li> <li data-mce-fragment="1">Hand wash cold and dry flat </li> </ul> <br> <ul data-mce-fragment="1"></ul>	
8111987130665	44409285640489	Check Cotton Pajamas Charcoal	Small Stuff	Pajamas	40.00	SSCHPABL04		113.0	g	[Size,L]	[Color,Charcoal]		http://www.myStore.com/products/	https://cdn.shopify.com/s/files/1/1137/7574/products/Screenshot2023-02-10at14.40.00.png	https://cdn.shopify.com/s/files/1/1137/7574/products/Screenshot2023-02-10at14.24.11.png|https://cdn.shopify.com/s/files/1/1137/7574/products/Screenshot2023-02-10at14.27.33.png|https://cdn.shopify.com/s/files/1/1137/7574/products/Screenshot2023-02-10at14.27.23.png|https://cdn.shopify.com/s/files/1/1137/7574/products/Screenshot2023-02-10at14.23.57.png|https://cdn.shopify.com/s/files/1/1137/7574/products/Screenshot2023-02-10at14.27.14.png	<meta charset="utf-8"><meta charset="utf-8"><span data-mce-fragment="1">The perfect pjs for loungewear or streetwear - Check Pajamas from Small Stuff. </span><span data-mce-fragment="1"></span> <ul data-mce-fragment="1"> <li data-mce-fragment="1">Soft check pjs contrasting piping<br data-mce-fragment="1"> </li> <li data-mce-fragment="1">Long sleeves with collar</li> <li data-mce-fragment="1">Velcro closure</li> <li data-mce-fragment="1">100% cotton</li> <li data-mce-fragment="1">Hand wash cold and dry flat </li> </ul> <br> <ul data-mce-fragment="1"></ul>	
8111987130665	44409285673257	Check Cotton Pajamas Charcoal	Small Stuff	Pajamas	40.00	SSCHPABL05		113.0	g	[Size,XL]	[Color,Charcoal]		http://www.myStore.com/products/	https://cdn.shopify.com/s/files/1/1137/7574/products/Screenshot2023-02-10at14.40.00.png	https://cdn.shopify.com/s/files/1/1137/7574/products/Screenshot2023-02-10at14.24.11.png|https://cdn.shopify.com/s/files/1/1137/7574/products/Screenshot2023-02-10at14.27.33.png|https://cdn.shopify.com/s/files/1/1137/7574/products/Screenshot2023-02-10at14.27.23.png|https://cdn.shopify.com/s/files/1/1137/7574/products/Screenshot2023-02-10at14.23.57.png|https://cdn.shopify.com/s/files/1/1137/7574/products/Screenshot2023-02-10at14.27.14.png	<meta charset="utf-8"><meta charset="utf-8"><span data-mce-fragment="1">The perfect pjs for loungewear or streetwear - Check Pajamas from Small Stuff. </span><span data-mce-fragment="1"></span> <ul data-mce-fragment="1"> <li data-mce-fragment="1">Soft check pjs contrasting piping<br data-mce-fragment="1"> </li> <li data-mce-fragment="1">Long sleeves with collar</li> <li data-mce-fragment="1">Velcro closure</li> <li data-mce-fragment="1">100% cotton</li> <li data-mce-fragment="1">Hand wash cold and dry flat </li> </ul> <br> <ul data-mce-fragment="1"></ul>	
8111990702377	44409299960105	Check Cotton Pajamas Red	Small Stuff	Pajamas	40.00	SSCHPARE01		113.0	g	[Size,XS]	[Color,Red]		http://www.myStore.com/products/	https://cdn.shopify.com/s/files/1/1137/7574/products/Screenshot2023-02-10at14.32.41.png	https://cdn.shopify.com/s/files/1/1137/7574/products/Screenshot2023-02-10at14.32.57.png|https://cdn.shopify.com/s/files/1/1137/7574/products/Screenshot2023-02-10at14.33.09.png|https://cdn.shopify.com/s/files/1/1137/7574/products/Screenshot2023-02-10at14.33.23.png|https://cdn.shopify.com/s/files/1/1137/7574/products/Screenshot2023-02-10at14.33.30.png|https://cdn.shopify.com/s/files/1/1137/7574/products/Screenshot2023-02-10at14.33.37.png	<meta charset="utf-8"><span data-mce-fragment="1">The perfect pjs for loungewear or streetwear - Check Pajamas from Small Stuff. </span> <ul data-mce-fragment="1"> <li data-mce-fragment="1">Soft check pjs contrasting piping<br> </li> <li data-mce-fragment="1">Long sleeves with collar</li> <li data-mce-fragment="1">Velcro closure</li> <li data-mce-fragment="1">100% cotton</li> <li data-mce-fragment="1">Hand wash cold and dry flat </li> </ul>	
8111990702377	44409299992873	Check Cotton Pajamas Red	Small Stuff	Pajamas	40.00	SSCHPARE02		113.0	g	[Size,S]	[Color,Red]		http://www.myStore.com/products/	https://cdn.shopify.com/s/files/1/1137/7574/products/Screenshot2023-02-10at14.32.41.png	https://cdn.shopify.com/s/files/1/1137/7574/products/Screenshot2023-02-10at14.32.57.png|https://cdn.shopify.com/s/files/1/1137/7574/products/Screenshot2023-02-10at14.33.09.png|https://cdn.shopify.com/s/files/1/1137/7574/products/Screenshot2023-02-10at14.33.23.png|https://cdn.shopify.com/s/files/1/1137/7574/products/Screenshot2023-02-10at14.33.30.png|https://cdn.shopify.com/s/files/1/1137/7574/products/Screenshot2023-02-10at14.33.37.png	<meta charset="utf-8"><span data-mce-fragment="1">The perfect pjs for loungewear or streetwear - Check Pajamas from Small Stuff. </span> <ul data-mce-fragment="1"> <li data-mce-fragment="1">Soft check pjs contrasting piping<br> </li> <li data-mce-fragment="1">Long sleeves with collar</li> <li data-mce-fragment="1">Velcro closure</li> <li data-mce-fragment="1">100% cotton</li> <li data-mce-fragment="1">Hand wash cold and dry flat </li> </ul>	
8111990702377	44409300025641	Check Cotton Pajamas Red	Small Stuff	Pajamas	40.00	SSCHPARE03		113.0	g	[Size,M]	[Color,Red]		http://www.myStore.com/products/	https://cdn.shopify.com/s/files/1/1137/7574/products/Screenshot2023-02-10at14.32.41.png	https://cdn.shopify.com/s/files/1/1137/7574/products/Screenshot2023-02-10at14.32.57.png|https://cdn.shopify.com/s/files/1/1137/7574/products/Screenshot2023-02-10at14.33.09.png|https://cdn.shopify.com/s/files/1/1137/7574/products/Screenshot2023-02-10at14.33.23.png|https://cdn.shopify.com/s/files/1/1137/7574/products/Screenshot2023-02-10at14.33.30.png|https://cdn.shopify.com/s/files/1/1137/7574/products/Screenshot2023-02-10at14.33.37.png	<meta charset="utf-8"><span data-mce-fragment="1">The perfect pjs for loungewear or streetwear - Check Pajamas from Small Stuff. </span> <ul data-mce-fragment="1"> <li data-mce-fragment="1">Soft check pjs contrasting piping<br> </li> <li data-mce-fragment="1">Long sleeves with collar</li> <li data-mce-fragment="1">Velcro closure</li> <li data-mce-fragment="1">100% cotton</li> <li data-mce-fragment="1">Hand wash cold and dry flat </li> </ul>	
8111990702377	44409300058409	Check Cotton Pajamas Red	Small Stuff	Pajamas	40.00	SSCHPARE04		113.0	g	[Size,L]	[Color,Red]		http://www.myStore.com/products/	https://cdn.shopify.com/s/files/1/1137/7574/products/Screenshot2023-02-10at14.32.41.png	https://cdn.shopify.com/s/files/1/1137/7574/products/Screenshot2023-02-10at14.32.57.png|https://cdn.shopify.com/s/files/1/1137/7574/products/Screenshot2023-02-10at14.33.09.png|https://cdn.shopify.com/s/files/1/1137/7574/products/Screenshot2023-02-10at14.33.23.png|https://cdn.shopify.com/s/files/1/1137/7574/products/Screenshot2023-02-10at14.33.30.png|https://cdn.shopify.com/s/files/1/1137/7574/products/Screenshot2023-02-10at14.33.37.png	<meta charset="utf-8"><span data-mce-fragment="1">The perfect pjs for loungewear or streetwear - Check Pajamas from Small Stuff. </span> <ul data-mce-fragment="1"> <li data-mce-fragment="1">Soft check pjs contrasting piping<br> </li> <li data-mce-fragment="1">Long sleeves with collar</li> <li data-mce-fragment="1">Velcro closure</li> <li data-mce-fragment="1">100% cotton</li> <li data-mce-fragment="1">Hand wash cold and dry flat </li> </ul>	
8111990702377	44409300091177	Check Cotton Pajamas Red	Small Stuff	Pajamas	40.00	SSCHPARE05		113.0	g	[Size,XL]	[Color,Red]		http://www.myStore.com/products/	https://cdn.shopify.com/s/files/1/1137/7574/products/Screenshot2023-02-10at14.32.41.png	https://cdn.shopify.com/s/files/1/1137/7574/products/Screenshot2023-02-10at14.32.57.png|https://cdn.shopify.com/s/files/1/1137/7574/products/Screenshot2023-02-10at14.33.09.png|https://cdn.shopify.com/s/files/1/1137/7574/products/Screenshot2023-02-10at14.33.23.png|https://cdn.shopify.com/s/files/1/1137/7574/products/Screenshot2023-02-10at14.33.30.png|https://cdn.shopify.com/s/files/1/1137/7574/products/Screenshot2023-02-10at14.33.37.png	<meta charset="utf-8"><span data-mce-fragment="1">The perfect pjs for loungewear or streetwear - Check Pajamas from Small Stuff. </span> <ul data-mce-fragment="1"> <li data-mce-fragment="1">Soft check pjs contrasting piping<br> </li> <li data-mce-fragment="1">Long sleeves with collar</li> <li data-mce-fragment="1">Velcro closure</li> <li data-mce-fragment="1">100% cotton</li> <li data-mce-fragment="1">Hand wash cold and dry flat </li> </ul>	
5002217193574	32269605863526	Check Pajamas Navy	Small Stuff	Pajamas	40.00	SSCHPANA01		113.0	g	[Size,XS]	[Color,Navy]		http://www.myStore.com/products/	https://cdn.shopify.com/s/files/1/1137/7574/products/Screenshot2021-01-12at19.54.25_851d83d3-cb76-4ea9-81ed-625ebb47f22b.png	https://cdn.shopify.com/s/files/1/1137/7574/products/Screenshot2021-01-12at19.55.50.png|https://cdn.shopify.com/s/files/1/1137/7574/products/Screenshot2021-01-12at19.56.06.png|https://cdn.shopify.com/s/files/1/1137/7574/products/Screenshot2021-01-12at19.56.16.png|https://cdn.shopify.com/s/files/1/1137/7574/products/Screenshot2021-01-12at19.55.05.png|https://cdn.shopify.com/s/files/1/1137/7574/products/Screenshot2021-01-12at19.55.33.png|https://cdn.shopify.com/s/files/1/1137/7574/products/Screenshot2021-01-12at19.54.47.png|https://cdn.shopify.com/s/files/1/1137/7574/products/Screenshot2021-01-12at19.55.16.png	<meta charset="utf-8"><span data-mce-fragment="1">The perfect pjs for loungewear or streetwear - the Check Pajamas from Small Stuff. </span> <ul data-mce-fragment="1"> <li data-mce-fragment="1">Button down top with contrasting piping<br> </li> <li data-mce-fragment="1">Long sleeves with collar</li> <li data-mce-fragment="1">Velcro closure</li> <li data-mce-fragment="1">100% cotton</li> <li data-mce-fragment="1">Hand wash cold and dry flat </li> </ul>	
5002217193574	32269605896294	Check Pajamas Navy	Small Stuff	Pajamas	40.00	SSCHPANA02		113.0	g	[Size,S]	[Color,Navy]		http://www.myStore.com/products/	https://cdn.shopify.com/s/files/1/1137/7574/products/Screenshot2021-01-12at19.54.25_851d83d3-cb76-4ea9-81ed-625ebb47f22b.png	https://cdn.shopify.com/s/files/1/1137/7574/products/Screenshot2021-01-12at19.55.50.png|https://cdn.shopify.com/s/files/1/1137/7574/products/Screenshot2021-01-12at19.56.06.png|https://cdn.shopify.com/s/files/1/1137/7574/products/Screenshot2021-01-12at19.56.16.png|https://cdn.shopify.com/s/files/1/1137/7574/products/Screenshot2021-01-12at19.55.05.png|https://cdn.shopify.com/s/files/1/1137/7574/products/Screenshot2021-01-12at19.55.33.png|https://cdn.shopify.com/s/files/1/1137/7574/products/Screenshot2021-01-12at19.54.47.png|https://cdn.shopify.com/s/files/1/1137/7574/products/Screenshot2021-01-12at19.55.16.png	<meta charset="utf-8"><span data-mce-fragment="1">The perfect pjs for loungewear or streetwear - the Check Pajamas from Small Stuff. </span> <ul data-mce-fragment="1"> <li data-mce-fragment="1">Button down top with contrasting piping<br> </li> <li data-mce-fragment="1">Long sleeves with collar</li> <li data-mce-fragment="1">Velcro closure</li> <li data-mce-fragment="1">100% cotton</li> <li data-mce-fragment="1">Hand wash cold and dry flat </li> </ul>	
5002217193574	32269605929062	Check Pajamas Navy	Small Stuff	Pajamas	40.00	SSCHPANA03		113.0	g	[Size,M]	[Color,Navy]		http://www.myStore.com/products/	https://cdn.shopify.com/s/files/1/1137/7574/products/Screenshot2021-01-12at19.54.25_851d83d3-cb76-4ea9-81ed-625ebb47f22b.png	https://cdn.shopify.com/s/files/1/1137/7574/products/Screenshot2021-01-12at19.55.50.png|https://cdn.shopify.com/s/files/1/1137/7574/products/Screenshot2021-01-12at19.56.06.png|https://cdn.shopify.com/s/files/1/1137/7574/products/Screenshot2021-01-12at19.56.16.png|https://cdn.shopify.com/s/files/1/1137/7574/products/Screenshot2021-01-12at19.55.05.png|https://cdn.shopify.com/s/files/1/1137/7574/products/Screenshot2021-01-12at19.55.33.png|https://cdn.shopify.com/s/files/1/1137/7574/products/Screenshot2021-01-12at19.54.47.png|https://cdn.shopify.com/s/files/1/1137/7574/products/Screenshot2021-01-12at19.55.16.png	<meta charset="utf-8"><span data-mce-fragment="1">The perfect pjs for loungewear or streetwear - the Check Pajamas from Small Stuff. </span> <ul data-mce-fragment="1"> <li data-mce-fragment="1">Button down top with contrasting piping<br> </li> <li data-mce-fragment="1">Long sleeves with collar</li> <li data-mce-fragment="1">Velcro closure</li> <li data-mce-fragment="1">100% cotton</li> <li data-mce-fragment="1">Hand wash cold and dry flat </li> </ul>	
5002217193574	32269605961830	Check Pajamas Navy	Small Stuff	Pajamas	40.00	SSCHPANA04		113.0	g	[Size,L]	[Color,Navy]		http://www.myStore.com/products/	https://cdn.shopify.com/s/files/1/1137/7574/products/Screenshot2021-01-12at19.54.25_851d83d3-cb76-4ea9-81ed-625ebb47f22b.png	https://cdn.shopify.com/s/files/1/1137/7574/products/Screenshot2021-01-12at19.55.50.png|https://cdn.shopify.com/s/files/1/1137/7574/products/Screenshot2021-01-12at19.56.06.png|https://cdn.shopify.com/s/files/1/1137/7574/products/Screenshot2021-01-12at19.56.16.png|https://cdn.shopify.com/s/files/1/1137/7574/products/Screenshot2021-01-12at19.55.05.png|https://cdn.shopify.com/s/files/1/1137/7574/products/Screenshot2021-01-12at19.55.33.png|https://cdn.shopify.com/s/files/1/1137/7574/products/Screenshot2021-01-12at19.54.47.png|https://cdn.shopify.com/s/files/1/1137/7574/products/Screenshot2021-01-12at19.55.16.png	<meta charset="utf-8"><span data-mce-fragment="1">The perfect pjs for loungewear or streetwear - the Check Pajamas from Small Stuff. </span> <ul data-mce-fragment="1"> <li data-mce-fragment="1">Button down top with contrasting piping<br> </li> <li data-mce-fragment="1">Long sleeves with collar</li> <li data-mce-fragment="1">Velcro closure</li> <li data-mce-fragment="1">100% cotton</li> <li data-mce-fragment="1">Hand wash cold and dry flat </li> </ul>	
5002217193574	32269605994598	Check Pajamas Navy	Small Stuff	Pajamas	40.00	SSCHPANA05		113.0	g	[Size,XL]	[Color,Navy]		http://www.myStore.com/products/	https://cdn.shopify.com/s/files/1/1137/7574/products/Screenshot2021-01-12at19.54.25_851d83d3-cb76-4ea9-81ed-625ebb47f22b.png	https://cdn.shopify.com/s/files/1/1137/7574/products/Screenshot2021-01-12at19.55.50.png|https://cdn.shopify.com/s/files/1/1137/7574/products/Screenshot2021-01-12at19.56.06.png|https://cdn.shopify.com/s/files/1/1137/7574/products/Screenshot2021-01-12at19.56.16.png|https://cdn.shopify.com/s/files/1/1137/7574/products/Screenshot2021-01-12at19.55.05.png|https://cdn.shopify.com/s/files/1/1137/7574/products/Screenshot2021-01-12at19.55.33.png|https://cdn.shopify.com/s/files/1/1137/7574/products/Screenshot2021-01-12at19.54.47.png|https://cdn.shopify.com/s/files/1/1137/7574/products/Screenshot2021-01-12at19.55.16.png	<meta charset="utf-8"><span data-mce-fragment="1">The perfect pjs for loungewear or streetwear - the Check Pajamas from Small Stuff. </span> <ul data-mce-fragment="1"> <li data-mce-fragment="1">Button down top with contrasting piping<br> </li> <li data-mce-fragment="1">Long sleeves with collar</li> <li data-mce-fragment="1">Velcro closure</li> <li data-mce-fragment="1">100% cotton</li> <li data-mce-fragment="1">Hand wash cold and dry flat </li> </ul>	
5002238853222	32269660323942	Check Pajamas Oatmeal	Small Stuff	Pajamas	40.00	SSCHPAOA01		113.0	g	[Size,XS]	[Color,Oatmeal]		http://www.myStore.com/products/	https://cdn.shopify.com/s/files/1/1137/7574/products/Screenshot2021-01-12at20.53.56.png	https://cdn.shopify.com/s/files/1/1137/7574/products/Screenshot2021-01-12at20.46.34.png|https://cdn.shopify.com/s/files/1/1137/7574/products/Screenshot2021-01-12at19.55.50_8d5adb12-2963-4983-ad4b-b33d0dbeaac0.png|https://cdn.shopify.com/s/files/1/1137/7574/products/Screenshot2021-01-12at20.46.07.png|https://cdn.shopify.com/s/files/1/1137/7574/products/Screenshot2021-01-12at20.46.15.png|https://cdn.shopify.com/s/files/1/1137/7574/products/Screenshot2021-01-12at19.54.47_bd71b651-e3fc-4019-91bb-8618df146d8c.png|https://cdn.shopify.com/s/files/1/1137/7574/products/Screenshot2021-01-12at19.55.16_b810758f-0e50-4ec4-9565-7f921fdeb72d.png|https://cdn.shopify.com/s/files/1/1137/7574/products/Screenshot2021-01-12at19.54.47_6c5d95a1-cf71-4e4d-87c4-3028d6c7562d.png	<meta charset="utf-8"><span data-mce-fragment="1">The perfect pjs for loungewear or streetwear - Check Pajamas from Small Stuff. </span> <ul data-mce-fragment="1"> <li data-mce-fragment="1">Button down top with contrasting piping<br> </li> <li data-mce-fragment="1">Long sleeves with collar</li> <li data-mce-fragment="1">Velcro closure</li> <li data-mce-fragment="1">100% cotton</li> <li data-mce-fragment="1">Hand wash cold and dry flat </li> </ul>	
5002238853222	32269660356710	Check Pajamas Oatmeal	Small Stuff	Pajamas	40.00	SSCHPAOA02		113.0	g	[Size,S]	[Color,Oatmeal]		http://www.myStore.com/products/	https://cdn.shopify.com/s/files/1/1137/7574/products/Screenshot2021-01-12at20.53.56.png	https://cdn.shopify.com/s/files/1/1137/7574/products/Screenshot2021-01-12at20.46.34.png|https://cdn.shopify.com/s/files/1/1137/7574/products/Screenshot2021-01-12at19.55.50_8d5adb12-2963-4983-ad4b-b33d0dbeaac0.png|https://cdn.shopify.com/s/files/1/1137/7574/products/Screenshot2021-01-12at20.46.07.png|https://cdn.shopify.com/s/files/1/1137/7574/products/Screenshot2021-01-12at20.46.15.png|https://cdn.shopify.com/s/files/1/1137/7574/products/Screenshot2021-01-12at19.54.47_bd71b651-e3fc-4019-91bb-8618df146d8c.png|https://cdn.shopify.com/s/files/1/1137/7574/products/Screenshot2021-01-12at19.55.16_b810758f-0e50-4ec4-9565-7f921fdeb72d.png|https://cdn.shopify.com/s/files/1/1137/7574/products/Screenshot2021-01-12at19.54.47_6c5d95a1-cf71-4e4d-87c4-3028d6c7562d.png	<meta charset="utf-8"><span data-mce-fragment="1">The perfect pjs for loungewear or streetwear - Check Pajamas from Small Stuff. </span> <ul data-mce-fragment="1"> <li data-mce-fragment="1">Button down top with contrasting piping<br> </li> <li data-mce-fragment="1">Long sleeves with collar</li> <li data-mce-fragment="1">Velcro closure</li> <li data-mce-fragment="1">100% cotton</li> <li data-mce-fragment="1">Hand wash cold and dry flat </li> </ul>	
5002238853222	32269660389478	Check Pajamas Oatmeal	Small Stuff	Pajamas	40.00	SSCHPAOA03		113.0	g	[Size,M]	[Color,Oatmeal]		http://www.myStore.com/products/	https://cdn.shopify.com/s/files/1/1137/7574/products/Screenshot2021-01-12at20.53.56.png	https://cdn.shopify.com/s/files/1/1137/7574/products/Screenshot2021-01-12at20.46.34.png|https://cdn.shopify.com/s/files/1/1137/7574/products/Screenshot2021-01-12at19.55.50_8d5adb12-2963-4983-ad4b-b33d0dbeaac0.png|https://cdn.shopify.com/s/files/1/1137/7574/products/Screenshot2021-01-12at20.46.07.png|https://cdn.shopify.com/s/files/1/1137/7574/products/Screenshot2021-01-12at20.46.15.png|https://cdn.shopify.com/s/files/1/1137/7574/products/Screenshot2021-01-12at19.54.47_bd71b651-e3fc-4019-91bb-8618df146d8c.png|https://cdn.shopify.com/s/files/1/1137/7574/products/Screenshot2021-01-12at19.55.16_b810758f-0e50-4ec4-9565-7f921fdeb72d.png|https://cdn.shopify.com/s/files/1/1137/7574/products/Screenshot2021-01-12at19.54.47_6c5d95a1-cf71-4e4d-87c4-3028d6c7562d.png	<meta charset="utf-8"><span data-mce-fragment="1">The perfect pjs for loungewear or streetwear - Check Pajamas from Small Stuff. </span> <ul data-mce-fragment="1"> <li data-mce-fragment="1">Button down top with contrasting piping<br> </li> <li data-mce-fragment="1">Long sleeves with collar</li> <li data-mce-fragment="1">Velcro closure</li> <li data-mce-fragment="1">100% cotton</li> <li data-mce-fragment="1">Hand wash cold and dry flat </li> </ul>	
5002238853222	32269660422246	Check Pajamas Oatmeal	Small Stuff	Pajamas	40.00	SSCHPAOA04		113.0	g	[Size,L]	[Color,Oatmeal]		http://www.myStore.com/products/	https://cdn.shopify.com/s/files/1/1137/7574/products/Screenshot2021-01-12at20.53.56.png	https://cdn.shopify.com/s/files/1/1137/7574/products/Screenshot2021-01-12at20.46.34.png|https://cdn.shopify.com/s/files/1/1137/7574/products/Screenshot2021-01-12at19.55.50_8d5adb12-2963-4983-ad4b-b33d0dbeaac0.png|https://cdn.shopify.com/s/files/1/1137/7574/products/Screenshot2021-01-12at20.46.07.png|https://cdn.shopify.com/s/files/1/1137/7574/products/Screenshot2021-01-12at20.46.15.png|https://cdn.shopify.com/s/files/1/1137/7574/products/Screenshot2021-01-12at19.54.47_bd71b651-e3fc-4019-91bb-8618df146d8c.png|https://cdn.shopify.com/s/files/1/1137/7574/products/Screenshot2021-01-12at19.55.16_b810758f-0e50-4ec4-9565-7f921fdeb72d.png|https://cdn.shopify.com/s/files/1/1137/7574/products/Screenshot2021-01-12at19.54.47_6c5d95a1-cf71-4e4d-87c4-3028d6c7562d.png	<meta charset="utf-8"><span data-mce-fragment="1">The perfect pjs for loungewear or streetwear - Check Pajamas from Small Stuff. </span> <ul data-mce-fragment="1"> <li data-mce-fragment="1">Button down top with contrasting piping<br> </li> <li data-mce-fragment="1">Long sleeves with collar</li> <li data-mce-fragment="1">Velcro closure</li> <li data-mce-fragment="1">100% cotton</li> <li data-mce-fragment="1">Hand wash cold and dry flat </li> </ul>	
5002238853222	32269660455014	Check Pajamas Oatmeal	Small Stuff	Pajamas	40.00	SSCHPAOA05		113.0	g	[Size,XL]	[Color,Oatmeal]		http://www.myStore.com/products/	https://cdn.shopify.com/s/files/1/1137/7574/products/Screenshot2021-01-12at20.53.56.png	https://cdn.shopify.com/s/files/1/1137/7574/products/Screenshot2021-01-12at20.46.34.png|https://cdn.shopify.com/s/files/1/1137/7574/products/Screenshot2021-01-12at19.55.50_8d5adb12-2963-4983-ad4b-b33d0dbeaac0.png|https://cdn.shopify.com/s/files/1/1137/7574/products/Screenshot2021-01-12at20.46.07.png|https://cdn.shopify.com/s/files/1/1137/7574/products/Screenshot2021-01-12at20.46.15.png|https://cdn.shopify.com/s/files/1/1137/7574/products/Screenshot2021-01-12at19.54.47_bd71b651-e3fc-4019-91bb-8618df146d8c.png|https://cdn.shopify.com/s/files/1/1137/7574/products/Screenshot2021-01-12at19.55.16_b810758f-0e50-4ec4-9565-7f921fdeb72d.png|https://cdn.shopify.com/s/files/1/1137/7574/products/Screenshot2021-01-12at19.54.47_6c5d95a1-cf71-4e4d-87c4-3028d6c7562d.png	<meta charset="utf-8"><span data-mce-fragment="1">The perfect pjs for loungewear or streetwear - Check Pajamas from Small Stuff. </span> <ul data-mce-fragment="1"> <li data-mce-fragment="1">Button down top with contrasting piping<br> </li> <li data-mce-fragment="1">Long sleeves with collar</li> <li data-mce-fragment="1">Velcro closure</li> <li data-mce-fragment="1">100% cotton</li> <li data-mce-fragment="1">Hand wash cold and dry flat </li> </ul>	
6772511899750	39767959601254	Cotton Check Sleepwear Top Navy	Small Stuff	Pajamas	41.00	SSCHPABU02		113.0	g	[Size,S]	[Color,Navy]		http://www.myStore.com/products/	https://cdn.shopify.com/s/files/1/1137/7574/products/Screenshot2022-08-11at22.33.36.png	https://cdn.shopify.com/s/files/1/1137/7574/products/Screenshot2022-08-11at22.34.16.png|https://cdn.shopify.com/s/files/1/1137/7574/products/Screenshot2022-08-11at22.33.04.png|https://cdn.shopify.com/s/files/1/1137/7574/products/Screenshot2022-08-11at22.33.54.png|https://cdn.shopify.com/s/files/1/1137/7574/products/Screenshot2022-08-11at22.34.04.png|https://cdn.shopify.com/s/files/1/1137/7574/products/Screenshot2022-08-11at22.34.34.png|https://cdn.shopify.com/s/files/1/1137/7574/products/Screenshot2022-08-11at22.33.18.png	<meta charset="utf-8"><span data-mce-fragment="1">TFW you and your pup don't want to leave the house? Time to slip on our Cotton Sleepwear Top from Small Stuff and go back to bed. </span> <ul data-mce-fragment="1"> <li data-mce-fragment="1">Pajama top with contrasting piping<br> </li> <li data-mce-fragment="1">Long sleeves with collar<br> </li> <li data-mce-fragment="1">Velcro closure</li> <li data-mce-fragment="1">100% cotton</li> <li data-mce-fragment="1">Hand wash cold and dry flat </li> </ul>	
6772511899750	39767959666790	Cotton Check Sleepwear Top Navy	Small Stuff	Pajamas	41.00	SSCHPABU03		113.0	g	[Size,M]	[Color,Navy]		http://www.myStore.com/products/	https://cdn.shopify.com/s/files/1/1137/7574/products/Screenshot2022-08-11at22.33.36.png	https://cdn.shopify.com/s/files/1/1137/7574/products/Screenshot2022-08-11at22.34.16.png|https://cdn.shopify.com/s/files/1/1137/7574/products/Screenshot2022-08-11at22.33.04.png|https://cdn.shopify.com/s/files/1/1137/7574/products/Screenshot2022-08-11at22.33.54.png|https://cdn.shopify.com/s/files/1/1137/7574/products/Screenshot2022-08-11at22.34.04.png|https://cdn.shopify.com/s/files/1/1137/7574/products/Screenshot2022-08-11at22.34.34.png|https://cdn.shopify.com/s/files/1/1137/7574/products/Screenshot2022-08-11at22.33.18.png	<meta charset="utf-8"><span data-mce-fragment="1">TFW you and your pup don't want to leave the house? Time to slip on our Cotton Sleepwear Top from Small Stuff and go back to bed. </span> <ul data-mce-fragment="1"> <li data-mce-fragment="1">Pajama top with contrasting piping<br> </li> <li data-mce-fragment="1">Long sleeves with collar<br> </li> <li data-mce-fragment="1">Velcro closure</li> <li data-mce-fragment="1">100% cotton</li> <li data-mce-fragment="1">Hand wash cold and dry flat </li> </ul>	
6772511899750	39767959699558	Cotton Check Sleepwear Top Navy	Small Stuff	Pajamas	41.00	SSCHPABU04		113.0	g	[Size,L]	[Color,Navy]		http://www.myStore.com/products/	https://cdn.shopify.com/s/files/1/1137/7574/products/Screenshot2022-08-11at22.33.36.png	https://cdn.shopify.com/s/files/1/1137/7574/products/Screenshot2022-08-11at22.34.16.png|https://cdn.shopify.com/s/files/1/1137/7574/products/Screenshot2022-08-11at22.33.04.png|https://cdn.shopify.com/s/files/1/1137/7574/products/Screenshot2022-08-11at22.33.54.png|https://cdn.shopify.com/s/files/1/1137/7574/products/Screenshot2022-08-11at22.34.04.png|https://cdn.shopify.com/s/files/1/1137/7574/products/Screenshot2022-08-11at22.34.34.png|https://cdn.shopify.com/s/files/1/1137/7574/products/Screenshot2022-08-11at22.33.18.png	<meta charset="utf-8"><span data-mce-fragment="1">TFW you and your pup don't want to leave the house? Time to slip on our Cotton Sleepwear Top from Small Stuff and go back to bed. </span> <ul data-mce-fragment="1"> <li data-mce-fragment="1">Pajama top with contrasting piping<br> </li> <li data-mce-fragment="1">Long sleeves with collar<br> </li> <li data-mce-fragment="1">Velcro closure</li> <li data-mce-fragment="1">100% cotton</li> <li data-mce-fragment="1">Hand wash cold and dry flat </li> </ul>	
6772511899750	39767959732326	Cotton Check Sleepwear Top Navy	Small Stuff	Pajamas	41.00	SSCHPABU05		113.0	g	[Size,XL]	[Color,Navy]		http://www.myStore.com/products/	https://cdn.shopify.com/s/files/1/1137/7574/products/Screenshot2022-08-11at22.33.36.png	https://cdn.shopify.com/s/files/1/1137/7574/products/Screenshot2022-08-11at22.34.16.png|https://cdn.shopify.com/s/files/1/1137/7574/products/Screenshot2022-08-11at22.33.04.png|https://cdn.shopify.com/s/files/1/1137/7574/products/Screenshot2022-08-11at22.33.54.png|https://cdn.shopify.com/s/files/1/1137/7574/products/Screenshot2022-08-11at22.34.04.png|https://cdn.shopify.com/s/files/1/1137/7574/products/Screenshot2022-08-11at22.34.34.png|https://cdn.shopify.com/s/files/1/1137/7574/products/Screenshot2022-08-11at22.33.18.png	<meta charset="utf-8"><span data-mce-fragment="1">TFW you and your pup don't want to leave the house? Time to slip on our Cotton Sleepwear Top from Small Stuff and go back to bed. </span> <ul data-mce-fragment="1"> <li data-mce-fragment="1">Pajama top with contrasting piping<br> </li> <li data-mce-fragment="1">Long sleeves with collar<br> </li> <li data-mce-fragment="1">Velcro closure</li> <li data-mce-fragment="1">100% cotton</li> <li data-mce-fragment="1">Hand wash cold and dry flat </li> </ul>	
6772511899750	39767959765094	Cotton Check Sleepwear Top Navy	Small Stuff	Pajamas	41.00	SSCHPABU06		113.0	g	[Size,XXL]	[Color,Navy]		http://www.myStore.com/products/	https://cdn.shopify.com/s/files/1/1137/7574/products/Screenshot2022-08-11at22.33.36.png	https://cdn.shopify.com/s/files/1/1137/7574/products/Screenshot2022-08-11at22.34.16.png|https://cdn.shopify.com/s/files/1/1137/7574/products/Screenshot2022-08-11at22.33.04.png|https://cdn.shopify.com/s/files/1/1137/7574/products/Screenshot2022-08-11at22.33.54.png|https://cdn.shopify.com/s/files/1/1137/7574/products/Screenshot2022-08-11at22.34.04.png|https://cdn.shopify.com/s/files/1/1137/7574/products/Screenshot2022-08-11at22.34.34.png|https://cdn.shopify.com/s/files/1/1137/7574/products/Screenshot2022-08-11at22.33.18.png	<meta charset="utf-8"><span data-mce-fragment="1">TFW you and your pup don't want to leave the house? Time to slip on our Cotton Sleepwear Top from Small Stuff and go back to bed. </span> <ul data-mce-fragment="1"> <li data-mce-fragment="1">Pajama top with contrasting piping<br> </li> <li data-mce-fragment="1">Long sleeves with collar<br> </li> <li data-mce-fragment="1">Velcro closure</li> <li data-mce-fragment="1">100% cotton</li> <li data-mce-fragment="1">Hand wash cold and dry flat </li> </ul>	
8190247403817	44722475532585	Cotton Sleepwear Top Navy	Small Stuff	Pajamas	43.00	SSCOPANA01		113.0	g	[Size,XS]	[Color,Navy]		http://www.myStore.com/products/	https://cdn.shopify.com/s/files/1/1137/7574/products/Screenshot2023-03-29at11.19.52.png	https://cdn.shopify.com/s/files/1/1137/7574/products/Screenshot2023-03-29at11.20.10.png|https://cdn.shopify.com/s/files/1/1137/7574/products/Screenshot2023-03-29at11.15.09_e447b6d0-7053-4a99-847b-865f72231064.png|https://cdn.shopify.com/s/files/1/1137/7574/products/Screenshot2023-03-29at11.20.38.png|https://cdn.shopify.com/s/files/1/1137/7574/products/Screenshot2023-03-29at11.20.47.png|https://cdn.shopify.com/s/files/1/1137/7574/products/Screenshot2023-03-29at10.50.59_e194e2e9-966e-4108-a317-36f251fc517d.png	<meta charset="utf-8"><span data-mce-fragment="1">TFW you and your pup don't want to leave the house? Time to slip on our Cotton Sleepwear Top from Small Stuff and go back to bed. </span> <ul data-mce-fragment="1"> <li data-mce-fragment="1">Pajama top with contrasting piping<br> </li> <li data-mce-fragment="1">Long sleeves with collar<br> </li> <li data-mce-fragment="1">Velcro closure</li> <li data-mce-fragment="1">100% cotton</li> <li data-mce-fragment="1">Hand wash cold and dry flat </li> </ul>	
8190247403817	44722475565353	Cotton Sleepwear Top Navy	Small Stuff	Pajamas	43.00	SSCOPANA02		113.0	g	[Size,S]	[Color,Navy]		http://www.myStore.com/products/	https://cdn.shopify.com/s/files/1/1137/7574/products/Screenshot2023-03-29at11.19.52.png	https://cdn.shopify.com/s/files/1/1137/7574/products/Screenshot2023-03-29at11.20.10.png|https://cdn.shopify.com/s/files/1/1137/7574/products/Screenshot2023-03-29at11.15.09_e447b6d0-7053-4a99-847b-865f72231064.png|https://cdn.shopify.com/s/files/1/1137/7574/products/Screenshot2023-03-29at11.20.38.png|https://cdn.shopify.com/s/files/1/1137/7574/products/Screenshot2023-03-29at11.20.47.png|https://cdn.shopify.com/s/files/1/1137/7574/products/Screenshot2023-03-29at10.50.59_e194e2e9-966e-4108-a317-36f251fc517d.png	<meta charset="utf-8"><span data-mce-fragment="1">TFW you and your pup don't want to leave the house? Time to slip on our Cotton Sleepwear Top from Small Stuff and go back to bed. </span> <ul data-mce-fragment="1"> <li data-mce-fragment="1">Pajama top with contrasting piping<br> </li> <li data-mce-fragment="1">Long sleeves with collar<br> </li> <li data-mce-fragment="1">Velcro closure</li> <li data-mce-fragment="1">100% cotton</li> <li data-mce-fragment="1">Hand wash cold and dry flat </li> </ul>	
8190247403817	44722475598121	Cotton Sleepwear Top Navy	Small Stuff	Pajamas	43.00	SSCOPANA03		113.0	g	[Size,M]	[Color,Navy]		http://www.myStore.com/products/	https://cdn.shopify.com/s/files/1/1137/7574/products/Screenshot2023-03-29at11.19.52.png	https://cdn.shopify.com/s/files/1/1137/7574/products/Screenshot2023-03-29at11.20.10.png|https://cdn.shopify.com/s/files/1/1137/7574/products/Screenshot2023-03-29at11.15.09_e447b6d0-7053-4a99-847b-865f72231064.png|https://cdn.shopify.com/s/files/1/1137/7574/products/Screenshot2023-03-29at11.20.38.png|https://cdn.shopify.com/s/files/1/1137/7574/products/Screenshot2023-03-29at11.20.47.png|https://cdn.shopify.com/s/files/1/1137/7574/products/Screenshot2023-03-29at10.50.59_e194e2e9-966e-4108-a317-36f251fc517d.png	<meta charset="utf-8"><span data-mce-fragment="1">TFW you and your pup don't want to leave the house? Time to slip on our Cotton Sleepwear Top from Small Stuff and go back to bed. </span> <ul data-mce-fragment="1"> <li data-mce-fragment="1">Pajama top with contrasting piping<br> </li> <li data-mce-fragment="1">Long sleeves with collar<br> </li> <li data-mce-fragment="1">Velcro closure</li> <li data-mce-fragment="1">100% cotton</li> <li data-mce-fragment="1">Hand wash cold and dry flat </li> </ul>	
8190247403817	44722475630889	Cotton Sleepwear Top Navy	Small Stuff	Pajamas	43.00	SSCOPANA04		113.0	g	[Size,L]	[Color,Navy]		http://www.myStore.com/products/	https://cdn.shopify.com/s/files/1/1137/7574/products/Screenshot2023-03-29at11.19.52.png	https://cdn.shopify.com/s/files/1/1137/7574/products/Screenshot2023-03-29at11.20.10.png|https://cdn.shopify.com/s/files/1/1137/7574/products/Screenshot2023-03-29at11.15.09_e447b6d0-7053-4a99-847b-865f72231064.png|https://cdn.shopify.com/s/files/1/1137/7574/products/Screenshot2023-03-29at11.20.38.png|https://cdn.shopify.com/s/files/1/1137/7574/products/Screenshot2023-03-29at11.20.47.png|https://cdn.shopify.com/s/files/1/1137/7574/products/Screenshot2023-03-29at10.50.59_e194e2e9-966e-4108-a317-36f251fc517d.png	<meta charset="utf-8"><span data-mce-fragment="1">TFW you and your pup don't want to leave the house? Time to slip on our Cotton Sleepwear Top from Small Stuff and go back to bed. </span> <ul data-mce-fragment="1"> <li data-mce-fragment="1">Pajama top with contrasting piping<br> </li> <li data-mce-fragment="1">Long sleeves with collar<br> </li> <li data-mce-fragment="1">Velcro closure</li> <li data-mce-fragment="1">100% cotton</li> <li data-mce-fragment="1">Hand wash cold and dry flat </li> </ul>	
8190247403817	44722475663657	Cotton Sleepwear Top Navy	Small Stuff	Pajamas	43.00	SSCOPANA05		113.0	g	[Size,XL]	[Color,Navy]		http://www.myStore.com/products/	https://cdn.shopify.com/s/files/1/1137/7574/products/Screenshot2023-03-29at11.19.52.png	https://cdn.shopify.com/s/files/1/1137/7574/products/Screenshot2023-03-29at11.20.10.png|https://cdn.shopify.com/s/files/1/1137/7574/products/Screenshot2023-03-29at11.15.09_e447b6d0-7053-4a99-847b-865f72231064.png|https://cdn.shopify.com/s/files/1/1137/7574/products/Screenshot2023-03-29at11.20.38.png|https://cdn.shopify.com/s/files/1/1137/7574/products/Screenshot2023-03-29at11.20.47.png|https://cdn.shopify.com/s/files/1/1137/7574/products/Screenshot2023-03-29at10.50.59_e194e2e9-966e-4108-a317-36f251fc517d.png	<meta charset="utf-8"><span data-mce-fragment="1">TFW you and your pup don't want to leave the house? Time to slip on our Cotton Sleepwear Top from Small Stuff and go back to bed. </span> <ul data-mce-fragment="1"> <li data-mce-fragment="1">Pajama top with contrasting piping<br> </li> <li data-mce-fragment="1">Long sleeves with collar<br> </li> <li data-mce-fragment="1">Velcro closure</li> <li data-mce-fragment="1">100% cotton</li> <li data-mce-fragment="1">Hand wash cold and dry flat </li> </ul>	
8190247403817	44722475696425	Cotton Sleepwear Top Navy	Small Stuff	Pajamas	43.00	SSCOPANA06		113.0	g	[Size,XXL]	[Color,Navy]		http://www.myStore.com/products/	https://cdn.shopify.com/s/files/1/1137/7574/products/Screenshot2023-03-29at11.19.52.png	https://cdn.shopify.com/s/files/1/1137/7574/products/Screenshot2023-03-29at11.20.10.png|https://cdn.shopify.com/s/files/1/1137/7574/products/Screenshot2023-03-29at11.15.09_e447b6d0-7053-4a99-847b-865f72231064.png|https://cdn.shopify.com/s/files/1/1137/7574/products/Screenshot2023-03-29at11.20.38.png|https://cdn.shopify.com/s/files/1/1137/7574/products/Screenshot2023-03-29at11.20.47.png|https://cdn.shopify.com/s/files/1/1137/7574/products/Screenshot2023-03-29at10.50.59_e194e2e9-966e-4108-a317-36f251fc517d.png	<meta charset="utf-8"><span data-mce-fragment="1">TFW you and your pup don't want to leave the house? Time to slip on our Cotton Sleepwear Top from Small Stuff and go back to bed. </span> <ul data-mce-fragment="1"> <li data-mce-fragment="1">Pajama top with contrasting piping<br> </li> <li data-mce-fragment="1">Long sleeves with collar<br> </li> <li data-mce-fragment="1">Velcro closure</li> <li data-mce-fragment="1">100% cotton</li> <li data-mce-fragment="1">Hand wash cold and dry flat </li> </ul>	
8190186914089	44722275844393	Cotton Sleepwear Top Pink	Small Stuff	Pajamas	44.00	SSCOPAPI01		113.0	g	[Size,XS]	[Color,Pink]		http://www.myStore.com/products/	https://cdn.shopify.com/s/files/1/1137/7574/products/Screenshot2023-03-29at10.52.43.png	https://cdn.shopify.com/s/files/1/1137/7574/products/Screenshot2023-03-29at10.51.12.png|https://cdn.shopify.com/s/files/1/1137/7574/products/Screenshot2023-03-29at10.50.59.png|https://cdn.shopify.com/s/files/1/1137/7574/products/Screenshot2023-03-29at10.51.42.png|https://cdn.shopify.com/s/files/1/1137/7574/products/Screenshot2023-03-29at10.51.25.png	<meta charset="utf-8"><span data-mce-fragment="1">TFW you and your pup don't want to leave the house? Time to slip on our Cotton Sleepwear Top from Small Stuff and go back to bed. </span> <ul data-mce-fragment="1"> <li data-mce-fragment="1">Pajama top with contrasting piping<br> </li> <li data-mce-fragment="1">Long sleeves with collar<br> </li> <li data-mce-fragment="1">Velcro closure</li> <li data-mce-fragment="1">100% cotton</li> <li data-mce-fragment="1">Hand wash cold and dry flat </li> </ul>	
8190186914089	44722153718057	Cotton Sleepwear Top Pink	Small Stuff	Pajamas	44.00	SSCOPAPI02		113.0	g	[Size,S]	[Color,Pink]		http://www.myStore.com/products/	https://cdn.shopify.com/s/files/1/1137/7574/products/Screenshot2023-03-29at10.52.43.png	https://cdn.shopify.com/s/files/1/1137/7574/products/Screenshot2023-03-29at10.51.12.png|https://cdn.shopify.com/s/files/1/1137/7574/products/Screenshot2023-03-29at10.50.59.png|https://cdn.shopify.com/s/files/1/1137/7574/products/Screenshot2023-03-29at10.51.42.png|https://cdn.shopify.com/s/files/1/1137/7574/products/Screenshot2023-03-29at10.51.25.png	<meta charset="utf-8"><span data-mce-fragment="1">TFW you and your pup don't want to leave the house? Time to slip on our Cotton Sleepwear Top from Small Stuff and go back to bed. </span> <ul data-mce-fragment="1"> <li data-mce-fragment="1">Pajama top with contrasting piping<br> </li> <li data-mce-fragment="1">Long sleeves with collar<br> </li> <li data-mce-fragment="1">Velcro closure</li> <li data-mce-fragment="1">100% cotton</li> <li data-mce-fragment="1">Hand wash cold and dry flat </li> </ul>	
8190186914089	44722153750825	Cotton Sleepwear Top Pink	Small Stuff	Pajamas	44.00	SSCOPAPI03		113.0	g	[Size,M]	[Color,Pink]		http://www.myStore.com/products/	https://cdn.shopify.com/s/files/1/1137/7574/products/Screenshot2023-03-29at10.52.43.png	https://cdn.shopify.com/s/files/1/1137/7574/products/Screenshot2023-03-29at10.51.12.png|https://cdn.shopify.com/s/files/1/1137/7574/products/Screenshot2023-03-29at10.50.59.png|https://cdn.shopify.com/s/files/1/1137/7574/products/Screenshot2023-03-29at10.51.42.png|https://cdn.shopify.com/s/files/1/1137/7574/products/Screenshot2023-03-29at10.51.25.png	<meta charset="utf-8"><span data-mce-fragment="1">TFW you and your pup don't want to leave the house? Time to slip on our Cotton Sleepwear Top from Small Stuff and go back to bed. </span> <ul data-mce-fragment="1"> <li data-mce-fragment="1">Pajama top with contrasting piping<br> </li> <li data-mce-fragment="1">Long sleeves with collar<br> </li> <li data-mce-fragment="1">Velcro closure</li> <li data-mce-fragment="1">100% cotton</li> <li data-mce-fragment="1">Hand wash cold and dry flat </li> </ul>	
8190186914089	44722153783593	Cotton Sleepwear Top Pink	Small Stuff	Pajamas	44.00	SSCOPAPI04		113.0	g	[Size,L]	[Color,Pink]		http://www.myStore.com/products/	https://cdn.shopify.com/s/files/1/1137/7574/products/Screenshot2023-03-29at10.52.43.png	https://cdn.shopify.com/s/files/1/1137/7574/products/Screenshot2023-03-29at10.51.12.png|https://cdn.shopify.com/s/files/1/1137/7574/products/Screenshot2023-03-29at10.50.59.png|https://cdn.shopify.com/s/files/1/1137/7574/products/Screenshot2023-03-29at10.51.42.png|https://cdn.shopify.com/s/files/1/1137/7574/products/Screenshot2023-03-29at10.51.25.png	<meta charset="utf-8"><span data-mce-fragment="1">TFW you and your pup don't want to leave the house? Time to slip on our Cotton Sleepwear Top from Small Stuff and go back to bed. </span> <ul data-mce-fragment="1"> <li data-mce-fragment="1">Pajama top with contrasting piping<br> </li> <li data-mce-fragment="1">Long sleeves with collar<br> </li> <li data-mce-fragment="1">Velcro closure</li> <li data-mce-fragment="1">100% cotton</li> <li data-mce-fragment="1">Hand wash cold and dry flat </li> </ul>	
8190186914089	44722153816361	Cotton Sleepwear Top Pink	Small Stuff	Pajamas	44.00	SSCOPAPI05		113.0	g	[Size,XL]	[Color,Pink]		http://www.myStore.com/products/	https://cdn.shopify.com/s/files/1/1137/7574/products/Screenshot2023-03-29at10.52.43.png	https://cdn.shopify.com/s/files/1/1137/7574/products/Screenshot2023-03-29at10.51.12.png|https://cdn.shopify.com/s/files/1/1137/7574/products/Screenshot2023-03-29at10.50.59.png|https://cdn.shopify.com/s/files/1/1137/7574/products/Screenshot2023-03-29at10.51.42.png|https://cdn.shopify.com/s/files/1/1137/7574/products/Screenshot2023-03-29at10.51.25.png	<meta charset="utf-8"><span data-mce-fragment="1">TFW you and your pup don't want to leave the house? Time to slip on our Cotton Sleepwear Top from Small Stuff and go back to bed. </span> <ul data-mce-fragment="1"> <li data-mce-fragment="1">Pajama top with contrasting piping<br> </li> <li data-mce-fragment="1">Long sleeves with collar<br> </li> <li data-mce-fragment="1">Velcro closure</li> <li data-mce-fragment="1">100% cotton</li> <li data-mce-fragment="1">Hand wash cold and dry flat </li> </ul>	
8190186914089	44722153849129	Cotton Sleepwear Top Pink	Small Stuff	Pajamas	44.00	SSCOPAPI06		113.0	g	[Size,XXL]	[Color,Pink]		http://www.myStore.com/products/	https://cdn.shopify.com/s/files/1/1137/7574/products/Screenshot2023-03-29at10.52.43.png	https://cdn.shopify.com/s/files/1/1137/7574/products/Screenshot2023-03-29at10.51.12.png|https://cdn.shopify.com/s/files/1/1137/7574/products/Screenshot2023-03-29at10.50.59.png|https://cdn.shopify.com/s/files/1/1137/7574/products/Screenshot2023-03-29at10.51.42.png|https://cdn.shopify.com/s/files/1/1137/7574/products/Screenshot2023-03-29at10.51.25.png	<meta charset="utf-8"><span data-mce-fragment="1">TFW you and your pup don't want to leave the house? Time to slip on our Cotton Sleepwear Top from Small Stuff and go back to bed. </span> <ul data-mce-fragment="1"> <li data-mce-fragment="1">Pajama top with contrasting piping<br> </li> <li data-mce-fragment="1">Long sleeves with collar<br> </li> <li data-mce-fragment="1">Velcro closure</li> <li data-mce-fragment="1">100% cotton</li> <li data-mce-fragment="1">Hand wash cold and dry flat </li> </ul>	
5012603830374	32292707729510	Cushioned Dog Harness Black	Wild One	harness	44.00	WOMOHABL02		277.0	g	[Size,S]	[Color,Black]		http://www.myStore.com/products/	https://cdn.shopify.com/s/files/1/1137/7574/products/Screenshot2021-01-26at19.36.57.png	https://cdn.shopify.com/s/files/1/1137/7574/products/Screenshot2021-01-26at19.37.06.png|https://cdn.shopify.com/s/files/1/1137/7574/products/Screenshot2021-01-26at19.37.14.png|https://cdn.shopify.com/s/files/1/1137/7574/products/Screenshot2021-01-26at19.37.21.png|https://cdn.shopify.com/s/files/1/1137/7574/products/WO_VM_Studio_PDP_Harness_Assorted_Product_02_Web_1000x1250_crop_center_2d8b1f91-64c2-498f-9209-1e67d903d835.jpg	<meta charset="utf-8"> <p><span style="font-weight: 400;">Soft, stretchy, and resilient. A cushioned, lightweight harness that’s simple to secure and easy to link up with. An adjustable neck and chest for all shapes and sizes. Three leash attachment points because we all lead in different ways. Probably the smartest harness. Pull the look together with the </span><a href="https://sirdogwood.com/collections/leashes/products/durable-dog-leash-black"><span style="font-weight: 400;">matching leash</span></a><span style="font-weight: 400;"> and </span><a href="https://sirdogwood.com/collections/poop-bag-holders/products/poop-bag-holder-black"><span style="font-weight: 400;">poop bag holder</span></a><span style="font-weight: 400;">!            </span></p> <ul> <li style="font-weight: 400;"><span style="font-weight: 400;">Soft stretch poly base, woven nylon straps, coated carbon steel D-rings.</span></li> <li style="font-weight: 400;"><span style="font-weight: 400;">Hand wash with mild soap and warm water. Air dry.</span></li> </ul> <ul></ul>	
5012603830374	32292707762278	Cushioned Dog Harness Black	Wild One	harness	44.00	WOMOHABL03		277.0	g	[Size,M]	[Color,Black]		http://www.myStore.com/products/	https://cdn.shopify.com/s/files/1/1137/7574/products/Screenshot2021-01-26at19.36.57.png	https://cdn.shopify.com/s/files/1/1137/7574/products/Screenshot2021-01-26at19.37.06.png|https://cdn.shopify.com/s/files/1/1137/7574/products/Screenshot2021-01-26at19.37.14.png|https://cdn.shopify.com/s/files/1/1137/7574/products/Screenshot2021-01-26at19.37.21.png|https://cdn.shopify.com/s/files/1/1137/7574/products/WO_VM_Studio_PDP_Harness_Assorted_Product_02_Web_1000x1250_crop_center_2d8b1f91-64c2-498f-9209-1e67d903d835.jpg	<meta charset="utf-8"> <p><span style="font-weight: 400;">Soft, stretchy, and resilient. A cushioned, lightweight harness that’s simple to secure and easy to link up with. An adjustable neck and chest for all shapes and sizes. Three leash attachment points because we all lead in different ways. Probably the smartest harness. Pull the look together with the </span><a href="https://sirdogwood.com/collections/leashes/products/durable-dog-leash-black"><span style="font-weight: 400;">matching leash</span></a><span style="font-weight: 400;"> and </span><a href="https://sirdogwood.com/collections/poop-bag-holders/products/poop-bag-holder-black"><span style="font-weight: 400;">poop bag holder</span></a><span style="font-weight: 400;">!            </span></p> <ul> <li style="font-weight: 400;"><span style="font-weight: 400;">Soft stretch poly base, woven nylon straps, coated carbon steel D-rings.</span></li> <li style="font-weight: 400;"><span style="font-weight: 400;">Hand wash with mild soap and warm water. Air dry.</span></li> </ul> <ul></ul>	
5012603830374	32292707795046	Cushioned Dog Harness Black	Wild One	harness	44.00	WOMOHABL04		277.0	g	[Size,L]	[Color,Black]		http://www.myStore.com/products/	https://cdn.shopify.com/s/files/1/1137/7574/products/Screenshot2021-01-26at19.36.57.png	https://cdn.shopify.com/s/files/1/1137/7574/products/Screenshot2021-01-26at19.37.06.png|https://cdn.shopify.com/s/files/1/1137/7574/products/Screenshot2021-01-26at19.37.14.png|https://cdn.shopify.com/s/files/1/1137/7574/products/Screenshot2021-01-26at19.37.21.png|https://cdn.shopify.com/s/files/1/1137/7574/products/WO_VM_Studio_PDP_Harness_Assorted_Product_02_Web_1000x1250_crop_center_2d8b1f91-64c2-498f-9209-1e67d903d835.jpg	<meta charset="utf-8"> <p><span style="font-weight: 400;">Soft, stretchy, and resilient. A cushioned, lightweight harness that’s simple to secure and easy to link up with. An adjustable neck and chest for all shapes and sizes. Three leash attachment points because we all lead in different ways. Probably the smartest harness. Pull the look together with the </span><a href="https://sirdogwood.com/collections/leashes/products/durable-dog-leash-black"><span style="font-weight: 400;">matching leash</span></a><span style="font-weight: 400;"> and </span><a href="https://sirdogwood.com/collections/poop-bag-holders/products/poop-bag-holder-black"><span style="font-weight: 400;">poop bag holder</span></a><span style="font-weight: 400;">!            </span></p> <ul> <li style="font-weight: 400;"><span style="font-weight: 400;">Soft stretch poly base, woven nylon straps, coated carbon steel D-rings.</span></li> <li style="font-weight: 400;"><span style="font-weight: 400;">Hand wash with mild soap and warm water. Air dry.</span></li> </ul> <ul></ul>	
4968419426406	32191306793062	Cushioned Dog Harness Blush	Wild One	harness	44.00	WOMOHAPI02		277.0	g	[Size,S]	[Color,Blush]		http://www.myStore.com/products/	https://cdn.shopify.com/s/files/1/1137/7574/products/Screenshot2020-11-12at20.51.05.png	https://cdn.shopify.com/s/files/1/1137/7574/products/Screenshot2020-11-12at20.51.14.png|https://cdn.shopify.com/s/files/1/1137/7574/products/Screenshot2020-11-12at20.51.24.png|https://cdn.shopify.com/s/files/1/1137/7574/products/Screenshot2020-11-12at20.51.36.png|https://cdn.shopify.com/s/files/1/1137/7574/products/WO_VM_Studio_PDP_Harness_Assorted_Product_02_Web_1000x1250_crop_center_5b4f509d-e86a-4b75-bcc5-8119fd2dcffb.jpg	<p><span><span><meta charset="utf-8">Soft, stretchy, and resilient. A cushioned, lightweight harness that’s simple to secure and easy to link up with. An adjustable neck and chest for all shapes and sizes. Three leash attachment points because we all lead in different ways. Probably the smartest harness. </span></span><span>Pull the look together with the <a href="https://sirdogwood.com/collections/leashes/products/modern-dog-leash-blush" target="_blank">matching leash</a>!           </span><span><span> </span></span></p> <ul> <li> <meta charset="utf-8"> <span>Soft stretch poly base, woven nylon straps, coated carbon steel D-rings.</span> </li> <li> <meta charset="utf-8"> <span>Hand wash with mild soap and warm water. Air dry.</span> </li> </ul>	
4968419426406	32191306825830	Cushioned Dog Harness Blush	Wild One	harness	44.00	WOMOHAPI03		277.0	g	[Size,M]	[Color,Blush]		http://www.myStore.com/products/	https://cdn.shopify.com/s/files/1/1137/7574/products/Screenshot2020-11-12at20.51.05.png	https://cdn.shopify.com/s/files/1/1137/7574/products/Screenshot2020-11-12at20.51.14.png|https://cdn.shopify.com/s/files/1/1137/7574/products/Screenshot2020-11-12at20.51.24.png|https://cdn.shopify.com/s/files/1/1137/7574/products/Screenshot2020-11-12at20.51.36.png|https://cdn.shopify.com/s/files/1/1137/7574/products/WO_VM_Studio_PDP_Harness_Assorted_Product_02_Web_1000x1250_crop_center_5b4f509d-e86a-4b75-bcc5-8119fd2dcffb.jpg	<p><span><span><meta charset="utf-8">Soft, stretchy, and resilient. A cushioned, lightweight harness that’s simple to secure and easy to link up with. An adjustable neck and chest for all shapes and sizes. Three leash attachment points because we all lead in different ways. Probably the smartest harness. </span></span><span>Pull the look together with the <a href="https://sirdogwood.com/collections/leashes/products/modern-dog-leash-blush" target="_blank">matching leash</a>!           </span><span><span> </span></span></p> <ul> <li> <meta charset="utf-8"> <span>Soft stretch poly base, woven nylon straps, coated carbon steel D-rings.</span> </li> <li> <meta charset="utf-8"> <span>Hand wash with mild soap and warm water. Air dry.</span> </li> </ul>	
4968419426406	32191306858598	Cushioned Dog Harness Blush	Wild One	harness	44.00	WOMOHAPI04		277.0	g	[Size,L]	[Color,Blush]		http://www.myStore.com/products/	https://cdn.shopify.com/s/files/1/1137/7574/products/Screenshot2020-11-12at20.51.05.png	https://cdn.shopify.com/s/files/1/1137/7574/products/Screenshot2020-11-12at20.51.14.png|https://cdn.shopify.com/s/files/1/1137/7574/products/Screenshot2020-11-12at20.51.24.png|https://cdn.shopify.com/s/files/1/1137/7574/products/Screenshot2020-11-12at20.51.36.png|https://cdn.shopify.com/s/files/1/1137/7574/products/WO_VM_Studio_PDP_Harness_Assorted_Product_02_Web_1000x1250_crop_center_5b4f509d-e86a-4b75-bcc5-8119fd2dcffb.jpg	<p><span><span><meta charset="utf-8">Soft, stretchy, and resilient. A cushioned, lightweight harness that’s simple to secure and easy to link up with. An adjustable neck and chest for all shapes and sizes. Three leash attachment points because we all lead in different ways. Probably the smartest harness. </span></span><span>Pull the look together with the <a href="https://sirdogwood.com/collections/leashes/products/modern-dog-leash-blush" target="_blank">matching leash</a>!           </span><span><span> </span></span></p> <ul> <li> <meta charset="utf-8"> <span>Soft stretch poly base, woven nylon straps, coated carbon steel D-rings.</span> </li> <li> <meta charset="utf-8"> <span>Hand wash with mild soap and warm water. Air dry.</span> </li> </ul>	
6618195165286	39401235644518	Cushioned Dog Harness Butter	Wild One	harness	44.00	WOMOHAYE01		277.0	g	[Size,XS]	[Color,Yellow]		http://www.myStore.com/products/	https://cdn.shopify.com/s/files/1/1137/7574/products/Screenshot2021-08-05at22.22.20.png	https://cdn.shopify.com/s/files/1/1137/7574/products/WO_VM_Studio_PDP_Harness_Butter_Dog_Product_01_Web_1000x1250_crop_center_ff8465b7-c794-42b4-a411-d0ffb06de77f.jpg|https://cdn.shopify.com/s/files/1/1137/7574/products/WO_VM_Studio_PDP_Harness_Butter_02_Web_1000x1250_crop_center_4ff16c82-cfab-4272-844f-48f2ff8b77e6.jpg|https://cdn.shopify.com/s/files/1/1137/7574/products/WO_VM_Studio_PDP_Harness_Butter_Dog_Product_02_Web_1000x1250_crop_center_4efc4bd0-06a8-4ddf-a895-3a96a81d4273.jpg|https://cdn.shopify.com/s/files/1/1137/7574/products/WO_VM_Studio_PDP_Harness_Assorted_Product_02_Web_1000x1250_crop_center_bbbc8907-1087-4d62-affd-070cca268b86.jpg	<meta charset="utf-8"> <p><span style="font-weight: 400;">Soft, stretchy, and resilient. A cushioned, lightweight harness that’s simple to secure and easy to link up with. An adjustable neck and chest for all shapes and sizes. Three leash attachment points because we all lead in different ways. Probably the smartest harness. Pull the look together with the </span><span style="font-weight: 400;" mce-data-marked="1"><a href="https://sirdogwood.com/collections/leashes/products/durable-dog-leash-butter">matching leash</a>.</span></p> <ul> <li style="font-weight: 400;"><span style="font-weight: 400;">Soft stretch poly base, woven nylon straps, coated carbon steel D-rings.</span></li> <li style="font-weight: 400;"><span style="font-weight: 400;">Hand wash with mild soap and warm water. Air dry.</span></li> </ul> <ul></ul>	
6618195165286	39401232826470	Cushioned Dog Harness Butter	Wild One	harness	44.00	WOMOHAYE02		277.0	g	[Size,S]	[Color,Yellow]		http://www.myStore.com/products/	https://cdn.shopify.com/s/files/1/1137/7574/products/Screenshot2021-08-05at22.22.20.png	https://cdn.shopify.com/s/files/1/1137/7574/products/WO_VM_Studio_PDP_Harness_Butter_Dog_Product_01_Web_1000x1250_crop_center_ff8465b7-c794-42b4-a411-d0ffb06de77f.jpg|https://cdn.shopify.com/s/files/1/1137/7574/products/WO_VM_Studio_PDP_Harness_Butter_02_Web_1000x1250_crop_center_4ff16c82-cfab-4272-844f-48f2ff8b77e6.jpg|https://cdn.shopify.com/s/files/1/1137/7574/products/WO_VM_Studio_PDP_Harness_Butter_Dog_Product_02_Web_1000x1250_crop_center_4efc4bd0-06a8-4ddf-a895-3a96a81d4273.jpg|https://cdn.shopify.com/s/files/1/1137/7574/products/WO_VM_Studio_PDP_Harness_Assorted_Product_02_Web_1000x1250_crop_center_bbbc8907-1087-4d62-affd-070cca268b86.jpg	<meta charset="utf-8"> <p><span style="font-weight: 400;">Soft, stretchy, and resilient. A cushioned, lightweight harness that’s simple to secure and easy to link up with. An adjustable neck and chest for all shapes and sizes. Three leash attachment points because we all lead in different ways. Probably the smartest harness. Pull the look together with the </span><span style="font-weight: 400;" mce-data-marked="1"><a href="https://sirdogwood.com/collections/leashes/products/durable-dog-leash-butter">matching leash</a>.</span></p> <ul> <li style="font-weight: 400;"><span style="font-weight: 400;">Soft stretch poly base, woven nylon straps, coated carbon steel D-rings.</span></li> <li style="font-weight: 400;"><span style="font-weight: 400;">Hand wash with mild soap and warm water. Air dry.</span></li> </ul> <ul></ul>	
6618195165286	39401232859238	Cushioned Dog Harness Butter	Wild One	harness	44.00	WOMOHAYE03		277.0	g	[Size,M]	[Color,Yellow]		http://www.myStore.com/products/	https://cdn.shopify.com/s/files/1/1137/7574/products/Screenshot2021-08-05at22.22.20.png	https://cdn.shopify.com/s/files/1/1137/7574/products/WO_VM_Studio_PDP_Harness_Butter_Dog_Product_01_Web_1000x1250_crop_center_ff8465b7-c794-42b4-a411-d0ffb06de77f.jpg|https://cdn.shopify.com/s/files/1/1137/7574/products/WO_VM_Studio_PDP_Harness_Butter_02_Web_1000x1250_crop_center_4ff16c82-cfab-4272-844f-48f2ff8b77e6.jpg|https://cdn.shopify.com/s/files/1/1137/7574/products/WO_VM_Studio_PDP_Harness_Butter_Dog_Product_02_Web_1000x1250_crop_center_4efc4bd0-06a8-4ddf-a895-3a96a81d4273.jpg|https://cdn.shopify.com/s/files/1/1137/7574/products/WO_VM_Studio_PDP_Harness_Assorted_Product_02_Web_1000x1250_crop_center_bbbc8907-1087-4d62-affd-070cca268b86.jpg	<meta charset="utf-8"> <p><span style="font-weight: 400;">Soft, stretchy, and resilient. A cushioned, lightweight harness that’s simple to secure and easy to link up with. An adjustable neck and chest for all shapes and sizes. Three leash attachment points because we all lead in different ways. Probably the smartest harness. Pull the look together with the </span><span style="font-weight: 400;" mce-data-marked="1"><a href="https://sirdogwood.com/collections/leashes/products/durable-dog-leash-butter">matching leash</a>.</span></p> <ul> <li style="font-weight: 400;"><span style="font-weight: 400;">Soft stretch poly base, woven nylon straps, coated carbon steel D-rings.</span></li> <li style="font-weight: 400;"><span style="font-weight: 400;">Hand wash with mild soap and warm water. Air dry.</span></li> </ul> <ul></ul>	
6618195165286	39401232892006	Cushioned Dog Harness Butter	Wild One	harness	44.00	WOMOHAYE04		277.0	g	[Size,L]	[Color,Yellow]		http://www.myStore.com/products/	https://cdn.shopify.com/s/files/1/1137/7574/products/Screenshot2021-08-05at22.22.20.png	https://cdn.shopify.com/s/files/1/1137/7574/products/WO_VM_Studio_PDP_Harness_Butter_Dog_Product_01_Web_1000x1250_crop_center_ff8465b7-c794-42b4-a411-d0ffb06de77f.jpg|https://cdn.shopify.com/s/files/1/1137/7574/products/WO_VM_Studio_PDP_Harness_Butter_02_Web_1000x1250_crop_center_4ff16c82-cfab-4272-844f-48f2ff8b77e6.jpg|https://cdn.shopify.com/s/files/1/1137/7574/products/WO_VM_Studio_PDP_Harness_Butter_Dog_Product_02_Web_1000x1250_crop_center_4efc4bd0-06a8-4ddf-a895-3a96a81d4273.jpg|https://cdn.shopify.com/s/files/1/1137/7574/products/WO_VM_Studio_PDP_Harness_Assorted_Product_02_Web_1000x1250_crop_center_bbbc8907-1087-4d62-affd-070cca268b86.jpg	<meta charset="utf-8"> <p><span style="font-weight: 400;">Soft, stretchy, and resilient. A cushioned, lightweight harness that’s simple to secure and easy to link up with. An adjustable neck and chest for all shapes and sizes. Three leash attachment points because we all lead in different ways. Probably the smartest harness. Pull the look together with the </span><span style="font-weight: 400;" mce-data-marked="1"><a href="https://sirdogwood.com/collections/leashes/products/durable-dog-leash-butter">matching leash</a>.</span></p> <ul> <li style="font-weight: 400;"><span style="font-weight: 400;">Soft stretch poly base, woven nylon straps, coated carbon steel D-rings.</span></li> <li style="font-weight: 400;"><span style="font-weight: 400;">Hand wash with mild soap and warm water. Air dry.</span></li> </ul> <ul></ul>	
4968422113382	32191318655078	Cushioned Dog Harness Lilac	Wild One	harness	44.00	WOMOHAPU02		277.0	g	[Size,S]	[Color,Lilac]		http://www.myStore.com/products/	https://cdn.shopify.com/s/files/1/1137/7574/products/Screenshot2020-11-12at20.50.28.png	https://cdn.shopify.com/s/files/1/1137/7574/products/Screenshot2020-11-12at20.50.35.png|https://cdn.shopify.com/s/files/1/1137/7574/products/Screenshot2020-11-12at20.50.42.png|https://cdn.shopify.com/s/files/1/1137/7574/products/Screenshot2020-11-12at20.50.51.png|https://cdn.shopify.com/s/files/1/1137/7574/products/WO_VM_Studio_PDP_Harness_Assorted_Product_02_Web_1000x1250_crop_center_824a1b64-7157-4401-9e6e-698e2260863b.jpg	<p> </p> <p><span><span><meta charset="utf-8">Soft, stretchy, and resilient. A cushioned, lightweight harness that’s simple to secure and easy to link up with. An adjustable neck and chest for all shapes and sizes. Three leash attachment points because we all lead in different ways. Probably the smartest harness. </span></span><span><span>Pull the look together with the <a href="https://sirdogwood.com/collections/leashes/products/durable-dog-leash-lilac">matching leash</a>!           </span></span><span><span> </span></span></p> <ul> <li> <meta charset="utf-8"> <span>Soft stretch poly base, woven nylon straps, coated carbon steel D-rings.</span> </li> <li> <meta charset="utf-8"> <span>Hand wash with mild soap and warm water. Air dry.</span> </li> </ul>	
4968422113382	32191318687846	Cushioned Dog Harness Lilac	Wild One	harness	44.00	WOMOHALI03		277.0	g	[Size,M]	[Color,Lilac]		http://www.myStore.com/products/	https://cdn.shopify.com/s/files/1/1137/7574/products/Screenshot2020-11-12at20.50.28.png	https://cdn.shopify.com/s/files/1/1137/7574/products/Screenshot2020-11-12at20.50.35.png|https://cdn.shopify.com/s/files/1/1137/7574/products/Screenshot2020-11-12at20.50.42.png|https://cdn.shopify.com/s/files/1/1137/7574/products/Screenshot2020-11-12at20.50.51.png|https://cdn.shopify.com/s/files/1/1137/7574/products/WO_VM_Studio_PDP_Harness_Assorted_Product_02_Web_1000x1250_crop_center_824a1b64-7157-4401-9e6e-698e2260863b.jpg	<p> </p> <p><span><span><meta charset="utf-8">Soft, stretchy, and resilient. A cushioned, lightweight harness that’s simple to secure and easy to link up with. An adjustable neck and chest for all shapes and sizes. Three leash attachment points because we all lead in different ways. Probably the smartest harness. </span></span><span><span>Pull the look together with the <a href="https://sirdogwood.com/collections/leashes/products/durable-dog-leash-lilac">matching leash</a>!           </span></span><span><span> </span></span></p> <ul> <li> <meta charset="utf-8"> <span>Soft stretch poly base, woven nylon straps, coated carbon steel D-rings.</span> </li> <li> <meta charset="utf-8"> <span>Hand wash with mild soap and warm water. Air dry.</span> </li> </ul>	
4968422113382	32191318720614	Cushioned Dog Harness Lilac	Wild One	harness	44.00	WOMOHAPU04		277.0	g	[Size,L]	[Color,Lilac]		http://www.myStore.com/products/	https://cdn.shopify.com/s/files/1/1137/7574/products/Screenshot2020-11-12at20.50.28.png	https://cdn.shopify.com/s/files/1/1137/7574/products/Screenshot2020-11-12at20.50.35.png|https://cdn.shopify.com/s/files/1/1137/7574/products/Screenshot2020-11-12at20.50.42.png|https://cdn.shopify.com/s/files/1/1137/7574/products/Screenshot2020-11-12at20.50.51.png|https://cdn.shopify.com/s/files/1/1137/7574/products/WO_VM_Studio_PDP_Harness_Assorted_Product_02_Web_1000x1250_crop_center_824a1b64-7157-4401-9e6e-698e2260863b.jpg	<p> </p> <p><span><span><meta charset="utf-8">Soft, stretchy, and resilient. A cushioned, lightweight harness that’s simple to secure and easy to link up with. An adjustable neck and chest for all shapes and sizes. Three leash attachment points because we all lead in different ways. Probably the smartest harness. </span></span><span><span>Pull the look together with the <a href="https://sirdogwood.com/collections/leashes/products/durable-dog-leash-lilac">matching leash</a>!           </span></span><span><span> </span></span></p> <ul> <li> <meta charset="utf-8"> <span>Soft stretch poly base, woven nylon straps, coated carbon steel D-rings.</span> </li> <li> <meta charset="utf-8"> <span>Hand wash with mild soap and warm water. Air dry.</span> </li> </ul>	
6655249809510	39479679877222	Cushioned Dog Harness Moonstone	Wild One	harness	44.00	WOMOHABU01		277.0	g	[Size,XS]	[Color,Moonstone]		http://www.myStore.com/products/	https://cdn.shopify.com/s/files/1/1137/7574/products/WO_VM_Studio_PDP_Harness_Moonstone_01_4x5_Webcopy_1000x1250_crop_center_a265faf6-0259-4fa5-9000-cb2d8b341999.jpg	https://cdn.shopify.com/s/files/1/1137/7574/products/WO_VM_Studio_PDP_Harness_Moonstone_02_4x5_Web_1000x1250_crop_center_a9eb08fe-8785-4e71-abf9-624cffdcc5cf.jpg|https://cdn.shopify.com/s/files/1/1137/7574/products/WO_VM_Studio_PDP_Harness_Moonstone_Dog_01_4x5_Web_1000x1250_crop_center_c8696891-b314-4de1-911f-89923d3a7a13.jpg|https://cdn.shopify.com/s/files/1/1137/7574/products/WO_VM_Studio_PDP_Harness_Moonstone_Dog_02_4x5_Web_1000x1250_crop_center_4947a847-c149-474a-a9bf-520ce7b443ac.jpg	<meta charset="utf-8"> <p><span><span><meta charset="utf-8">Soft, stretchy, and resilient. A cushioned, lightweight harness that’s simple to secure and easy to link up with. An adjustable neck and chest for all shapes and sizes. Three leash attachment points because we all lead in different ways. Probably the smartest harness. </span></span><span>Pull the look together with the <a href="https://sirdogwood.com/collections/leashes/products/preorder-durable-dog-leash-moonstone">matching leash</a>!           </span><span><span> </span></span></p> <ul> <li> <meta charset="utf-8"> <span>Soft stretch poly base, woven nylon straps, coated carbon steel D-rings.</span> </li> <li> <meta charset="utf-8"> <span>Hand wash with mild soap and warm water. Air dry.</span> </li> </ul>	
6655249809510	39479676665958	Cushioned Dog Harness Moonstone	Wild One	harness	44.00	WOMOHABU02		277.0	g	[Size,S]	[Color,Moonstone]		http://www.myStore.com/products/	https://cdn.shopify.com/s/files/1/1137/7574/products/WO_VM_Studio_PDP_Harness_Moonstone_01_4x5_Webcopy_1000x1250_crop_center_a265faf6-0259-4fa5-9000-cb2d8b341999.jpg	https://cdn.shopify.com/s/files/1/1137/7574/products/WO_VM_Studio_PDP_Harness_Moonstone_02_4x5_Web_1000x1250_crop_center_a9eb08fe-8785-4e71-abf9-624cffdcc5cf.jpg|https://cdn.shopify.com/s/files/1/1137/7574/products/WO_VM_Studio_PDP_Harness_Moonstone_Dog_01_4x5_Web_1000x1250_crop_center_c8696891-b314-4de1-911f-89923d3a7a13.jpg|https://cdn.shopify.com/s/files/1/1137/7574/products/WO_VM_Studio_PDP_Harness_Moonstone_Dog_02_4x5_Web_1000x1250_crop_center_4947a847-c149-474a-a9bf-520ce7b443ac.jpg	<meta charset="utf-8"> <p><span><span><meta charset="utf-8">Soft, stretchy, and resilient. A cushioned, lightweight harness that’s simple to secure and easy to link up with. An adjustable neck and chest for all shapes and sizes. Three leash attachment points because we all lead in different ways. Probably the smartest harness. </span></span><span>Pull the look together with the <a href="https://sirdogwood.com/collections/leashes/products/preorder-durable-dog-leash-moonstone">matching leash</a>!           </span><span><span> </span></span></p> <ul> <li> <meta charset="utf-8"> <span>Soft stretch poly base, woven nylon straps, coated carbon steel D-rings.</span> </li> <li> <meta charset="utf-8"> <span>Hand wash with mild soap and warm water. Air dry.</span> </li> </ul>	
6655249809510	39479676698726	Cushioned Dog Harness Moonstone	Wild One	harness	44.00	WOMOHABU03		277.0	g	[Size,M]	[Color,Moonstone]		http://www.myStore.com/products/	https://cdn.shopify.com/s/files/1/1137/7574/products/WO_VM_Studio_PDP_Harness_Moonstone_01_4x5_Webcopy_1000x1250_crop_center_a265faf6-0259-4fa5-9000-cb2d8b341999.jpg	https://cdn.shopify.com/s/files/1/1137/7574/products/WO_VM_Studio_PDP_Harness_Moonstone_02_4x5_Web_1000x1250_crop_center_a9eb08fe-8785-4e71-abf9-624cffdcc5cf.jpg|https://cdn.shopify.com/s/files/1/1137/7574/products/WO_VM_Studio_PDP_Harness_Moonstone_Dog_01_4x5_Web_1000x1250_crop_center_c8696891-b314-4de1-911f-89923d3a7a13.jpg|https://cdn.shopify.com/s/files/1/1137/7574/products/WO_VM_Studio_PDP_Harness_Moonstone_Dog_02_4x5_Web_1000x1250_crop_center_4947a847-c149-474a-a9bf-520ce7b443ac.jpg	<meta charset="utf-8"> <p><span><span><meta charset="utf-8">Soft, stretchy, and resilient. A cushioned, lightweight harness that’s simple to secure and easy to link up with. An adjustable neck and chest for all shapes and sizes. Three leash attachment points because we all lead in different ways. Probably the smartest harness. </span></span><span>Pull the look together with the <a href="https://sirdogwood.com/collections/leashes/products/preorder-durable-dog-leash-moonstone">matching leash</a>!           </span><span><span> </span></span></p> <ul> <li> <meta charset="utf-8"> <span>Soft stretch poly base, woven nylon straps, coated carbon steel D-rings.</span> </li> <li> <meta charset="utf-8"> <span>Hand wash with mild soap and warm water. Air dry.</span> </li> </ul>	
6655249809510	39479676731494	Cushioned Dog Harness Moonstone	Wild One	harness	44.00	WOMOHABU04		277.0	g	[Size,L]	[Color,Moonstone]		http://www.myStore.com/products/	https://cdn.shopify.com/s/files/1/1137/7574/products/WO_VM_Studio_PDP_Harness_Moonstone_01_4x5_Webcopy_1000x1250_crop_center_a265faf6-0259-4fa5-9000-cb2d8b341999.jpg	https://cdn.shopify.com/s/files/1/1137/7574/products/WO_VM_Studio_PDP_Harness_Moonstone_02_4x5_Web_1000x1250_crop_center_a9eb08fe-8785-4e71-abf9-624cffdcc5cf.jpg|https://cdn.shopify.com/s/files/1/1137/7574/products/WO_VM_Studio_PDP_Harness_Moonstone_Dog_01_4x5_Web_1000x1250_crop_center_c8696891-b314-4de1-911f-89923d3a7a13.jpg|https://cdn.shopify.com/s/files/1/1137/7574/products/WO_VM_Studio_PDP_Harness_Moonstone_Dog_02_4x5_Web_1000x1250_crop_center_4947a847-c149-474a-a9bf-520ce7b443ac.jpg	<meta charset="utf-8"> <p><span><span><meta charset="utf-8">Soft, stretchy, and resilient. A cushioned, lightweight harness that’s simple to secure and easy to link up with. An adjustable neck and chest for all shapes and sizes. Three leash attachment points because we all lead in different ways. Probably the smartest harness. </span></span><span>Pull the look together with the <a href="https://sirdogwood.com/collections/leashes/products/preorder-durable-dog-leash-moonstone">matching leash</a>!           </span><span><span> </span></span></p> <ul> <li> <meta charset="utf-8"> <span>Soft stretch poly base, woven nylon straps, coated carbon steel D-rings.</span> </li> <li> <meta charset="utf-8"> <span>Hand wash with mild soap and warm water. Air dry.</span> </li> </ul>	
4968413036646	32191279726694	Cushioned Dog Harness Navy	Wild One	harness	44.00	WOMOHANA02		277.0	g	[Size,S]	[Color,Navy]		http://www.myStore.com/products/	https://cdn.shopify.com/s/files/1/1137/7574/products/Screenshot2020-11-12at20.49.42.png	https://cdn.shopify.com/s/files/1/1137/7574/products/Screenshot2020-11-12at20.49.52.png|https://cdn.shopify.com/s/files/1/1137/7574/products/Screenshot2020-11-12at20.50.04.png|https://cdn.shopify.com/s/files/1/1137/7574/products/Screenshot2020-11-12at20.50.12.png|https://cdn.shopify.com/s/files/1/1137/7574/products/WO_VM_Studio_PDP_Harness_Assorted_Product_02_Web_1000x1250_crop_center_57c5d7a0-663f-4b64-8faf-88783c7a79fb.jpg	<p><span><span><meta charset="utf-8">Soft, stretchy, and resilient. A cushioned, lightweight harness that’s simple to secure and easy to link up with. An adjustable neck and chest for all shapes and sizes. Three leash attachment points because we all lead in different ways. Probably the smartest harness. </span></span><span><span>Pull the look together with the <a href="https://sirdogwood.com/collections/leashes/products/durable-dog-leash-navy">matching leash</a>!           </span></span><span><span> </span></span></p> <ul> <li> <meta charset="utf-8"> <span>Soft stretch poly base, woven nylon straps, coated carbon steel D-rings.</span> </li> <li> <meta charset="utf-8"> <span>Hand wash with mild soap and warm water. Air dry.</span> </li> </ul>	
4968413036646	32191279759462	Cushioned Dog Harness Navy	Wild One	harness	44.00	WOMOHANA03		277.0	g	[Size,M]	[Color,Navy]		http://www.myStore.com/products/	https://cdn.shopify.com/s/files/1/1137/7574/products/Screenshot2020-11-12at20.49.42.png	https://cdn.shopify.com/s/files/1/1137/7574/products/Screenshot2020-11-12at20.49.52.png|https://cdn.shopify.com/s/files/1/1137/7574/products/Screenshot2020-11-12at20.50.04.png|https://cdn.shopify.com/s/files/1/1137/7574/products/Screenshot2020-11-12at20.50.12.png|https://cdn.shopify.com/s/files/1/1137/7574/products/WO_VM_Studio_PDP_Harness_Assorted_Product_02_Web_1000x1250_crop_center_57c5d7a0-663f-4b64-8faf-88783c7a79fb.jpg	<p><span><span><meta charset="utf-8">Soft, stretchy, and resilient. A cushioned, lightweight harness that’s simple to secure and easy to link up with. An adjustable neck and chest for all shapes and sizes. Three leash attachment points because we all lead in different ways. Probably the smartest harness. </span></span><span><span>Pull the look together with the <a href="https://sirdogwood.com/collections/leashes/products/durable-dog-leash-navy">matching leash</a>!           </span></span><span><span> </span></span></p> <ul> <li> <meta charset="utf-8"> <span>Soft stretch poly base, woven nylon straps, coated carbon steel D-rings.</span> </li> <li> <meta charset="utf-8"> <span>Hand wash with mild soap and warm water. Air dry.</span> </li> </ul>	
4968413036646	32191279792230	Cushioned Dog Harness Navy	Wild One	harness	44.00	WOMOHANA04		277.0	g	[Size,L]	[Color,Navy]		http://www.myStore.com/products/	https://cdn.shopify.com/s/files/1/1137/7574/products/Screenshot2020-11-12at20.49.42.png	https://cdn.shopify.com/s/files/1/1137/7574/products/Screenshot2020-11-12at20.49.52.png|https://cdn.shopify.com/s/files/1/1137/7574/products/Screenshot2020-11-12at20.50.04.png|https://cdn.shopify.com/s/files/1/1137/7574/products/Screenshot2020-11-12at20.50.12.png|https://cdn.shopify.com/s/files/1/1137/7574/products/WO_VM_Studio_PDP_Harness_Assorted_Product_02_Web_1000x1250_crop_center_57c5d7a0-663f-4b64-8faf-88783c7a79fb.jpg	<p><span><span><meta charset="utf-8">Soft, stretchy, and resilient. A cushioned, lightweight harness that’s simple to secure and easy to link up with. An adjustable neck and chest for all shapes and sizes. Three leash attachment points because we all lead in different ways. Probably the smartest harness. </span></span><span><span>Pull the look together with the <a href="https://sirdogwood.com/collections/leashes/products/durable-dog-leash-navy">matching leash</a>!           </span></span><span><span> </span></span></p> <ul> <li> <meta charset="utf-8"> <span>Soft stretch poly base, woven nylon straps, coated carbon steel D-rings.</span> </li> <li> <meta charset="utf-8"> <span>Hand wash with mild soap and warm water. Air dry.</span> </li> </ul>	
8090186613033	44323151544617	Doga Merit Badge	Scout's Honor	Patch	9.00	SHDOPAPI99		0.5	oz	[Color,Pink Multi]			http://www.myStore.com/products/	https://cdn.shopify.com/s/files/1/1137/7574/products/doga.webp	https://cdn.shopify.com/s/files/1/1137/7574/products/doga_3ac4ef3b-1cf1-4fc6-8573-e906f47a7377.webp	<meta charset="utf-8"><meta charset="utf-8"><meta charset="utf-8"> <p data-mce-fragment="1">For the downward dog. Ohhh big stretch...!<span> An iron-on merit badge for dogs (or any pet). The perfect addition to a dog's bandana, jacket, or blanket. All of our merit badges are iron-on. It’s fuss free and done in minutes! Every order comes with an instruction guide on how to best apply your badge</span>.</p> <div style="padding-left: 30px;"> <ul> <li>Iron on patch</li> <li>Designed and manufactured in the UK</li> </ul> </div>	
5010532991078	32287575572582	Durable Dog Leash Black	Wild One	Leash	54.00	WODULEBL01		260.0	g	[Color,Black]			http://www.myStore.com/products/	https://cdn.shopify.com/s/files/1/1137/7574/products/Screenshot2021-01-22at16.21.07.png	https://cdn.shopify.com/s/files/1/1137/7574/products/Screenshot2021-01-22at15.52.16.png|https://cdn.shopify.com/s/files/1/1137/7574/products/Screenshot2021-01-22at15.52.35.png|https://cdn.shopify.com/s/files/1/1137/7574/products/Screenshot2021-01-22at15.52.26.png|https://cdn.shopify.com/s/files/1/1137/7574/products/Screenshot2021-01-22at16.21.23.png|https://cdn.shopify.com/s/files/1/1137/7574/products/Screenshot2021-01-22at16.21.15.png	<p><span><span>A durable, water-proof leash that allows you to easily change lengths. It's dirt and odor resistant, easy-to-clean, and made with flex-poly straps and sturdy hardware. Perfect for easy temporary tie-ups, quick short-leash adjustments, tandem walks, and everyday adventures. </span></span>Pull the look together with the <a href="https://sirdogwood.com/collections/collars/products/modern-dog-collar-black">matching collar</a> and/or harness!  </p> <p> </p> <ul> <li><span><span>Flex poly coated nylon strap, zinc alloy snap hooks, coated carbon steel D-rings</span></span></li> <li>Standard Leash: Regular attachment measures 5.5 feet</li> <li>Strap width - 3/4"</li> <li>Weight - 0.5 lbs</li> <li>Hand wash with mild soap and warm water</li> </ul> <p> </p>	
4879684829286	31961141477478	Durable Dog Leash Blush	Wild One	Leash	54.00	WODULEPI01		260.0	g	[Color,Blush]			http://www.myStore.com/products/	https://cdn.shopify.com/s/files/1/1137/7574/products/WO_leash_blush.jpg	https://cdn.shopify.com/s/files/1/1137/7574/products/WO_leash_blush_2.jpg|https://cdn.shopify.com/s/files/1/1137/7574/products/WO_leash_blush_3.jpg|https://cdn.shopify.com/s/files/1/1137/7574/products/WO_leash_blush_4.jpg|https://cdn.shopify.com/s/files/1/1137/7574/products/WO_blush_set_5db975e8-8115-46a6-9613-79a6a6f2a1cb.jpg	<p><span><span>A durable, water-proof leash that allows you to easily change lengths. It's dirt and odor resistant, easy-to-clean, and made with flex-poly straps and sturdy hardware. Perfect for easy temporary tie-ups, quick short-leash adjustments, tandem walks, and everyday adventures. </span></span>Pull the look together with the <a href="https://sirdogwood.com/collections/collars/products/modern-dog-collar-blush">matching collar</a> and/or harness!  </p> <p> </p> <ul> <li><span><span>Flex poly coated nylon strap, zinc alloy snap hooks, coated carbon steel D-rings</span></span></li> <li>Standard Leash: Regular attachment measures 5.5 feet</li> <li>Strap width - 3/4"</li> <li>Weight - 0.5 lbs</li> <li>Hand wash with mild soap and warm water</li> </ul> <p> </p>	
6618189463654	39401226698854	Durable Dog Leash Moonstone	Wild One	Leash	54.00	WODULEBU01		260.0	g	[Color,Blue]			http://www.myStore.com/products/	https://cdn.shopify.com/s/files/1/1137/7574/products/Screenshot2021-08-05at22.48.23.png	https://cdn.shopify.com/s/files/1/1137/7574/products/WO_VM_Studio_PDP_Leash_Moonstone_02_Web_1000x1250_crop_center_52f798f6-a430-4706-bc4c-6cc1a15b826e.jpg|https://cdn.shopify.com/s/files/1/1137/7574/products/WO_VM_Studio_PDP_WalkKitHarness_Moonstone_Dog_02_Web_1000x1250_crop_center_b5b7d199-8083-470c-b6ae-9532b69e7bc2.jpg	<meta charset="utf-8"><meta charset="utf-8"> <p><span><span>A durable, water-proof leash that allows you to easily change lengths. It's dirt and odor resistant, easy-to-clean, and made with flex-poly straps and sturdy hardware. Perfect for easy temporary tie-ups, quick short-leash adjustments, tandem walks, and everyday adventures. </span></span>Pull the look together with the matching collar!</p> <meta charset="utf-8"> <ul> <li><span><span>Flex poly coated nylon strap, zinc alloy snap hooks, coated carbon steel D-rings</span></span></li> <li>Standard Leash: Regular attachment measures 5.5 feet</li> <li>Strap width - 3/4"</li> <li>Weight - 0.5 lbs</li> <li>Hand wash with mild soap and warm water</li> </ul> <meta charset="utf-8">	
4879693381734	31961158385766	Durable Dog Leash Navy	Wild One	Leash	54.00	WODULENA01		260.0	g	[Color,Navy]			http://www.myStore.com/products/	https://cdn.shopify.com/s/files/1/1137/7574/products/WO_leash_navy.jpg	https://cdn.shopify.com/s/files/1/1137/7574/products/WO_leash_navy_3.jpg|https://cdn.shopify.com/s/files/1/1137/7574/products/WO_leash_navy_4.jpg|https://cdn.shopify.com/s/files/1/1137/7574/products/WO_leash_navy_2.jpg|https://cdn.shopify.com/s/files/1/1137/7574/products/WO_leash_navy_5.jpg|https://cdn.shopify.com/s/files/1/1137/7574/products/WO_navy_set_c8c2ff3b-3c5d-4cc2-9f72-0ecf59f0006f.jpg	<p><span><span>A durable, water-proof leash that allows you to easily change lengths. It's dirt and odor resistant, easy-to-clean, and made with flex-poly straps and sturdy hardware. Perfect for easy temporary tie-ups, quick short-leash adjustments, tandem walks, and everyday adventures.  </span></span>Pull the look<br>together with the <a href="https://sirdogwood.com/collections/collars/products/modern-dog-collar-navy">matching collar</a> and/or harness!            </p> <p> </p> <ul> <li><span><span>Flex poly coated nylon strap, zinc alloy snap hooks, coated carbon steel D-rings</span></span></li> <li>Standard Leash: Regular attachment measures 5.5 feet</li> <li>Strap width - 3/4"</li> <li>Weight - 0.5 lbs</li> <li>Hand wash with mild soap and warm water</li> </ul> <p> </p>	
6564317855846	39302673596518	Flame Collar Charm	Trill Paws	Collar Charms	28.00	TPFLCHOR99		0.5	oz	[Color,Orange Multi]			http://www.myStore.com/products/	https://cdn.shopify.com/s/files/1/1137/7574/products/Screenshot2021-04-18at13.53.29.png	https://cdn.shopify.com/s/files/1/1137/7574/products/Screenshot2021-08-24at15.59.05.png	<meta charset="utf-8"> <p data-mce-fragment="1"><span data-mce-fragment="1">Trill Paws Collar Charms are super cool, fun and durable - there's one for any pup's personality!  </span><br data-mce-fragment="1"></p> <ul> <li>Durable Metal Pet Tag</li> <li>Scratch resistant enamel that won't rub off or fade</li> <li>Water resistant</li> <li>Standard size measures 30mm in length<br> </li> <li>Designed with love in Los Angeles</li> <li>Split ring included</li> <li> <meta charset="utf-8">Photo <meta charset="utf-8"> <a class="notranslate" href="https://www.instagram.com/lilbabytheyorkie/" tabindex="0" data-mce-fragment="1" data-mce-tabindex="0" data-mce-href="https://www.instagram.com/lilbabytheyorkie/">@lilbabytheyorkie</a> </li> </ul>	
8090181173545	44323094233385	Fur Baby Merit Badge	Scout's Honor	Patch	9.00	SHFUPAPI99		0.5	oz	[Color,Pink Multi]			http://www.myStore.com/products/	https://cdn.shopify.com/s/files/1/1137/7574/products/scouts-honour-fur-baby-merit-badge-962343_600x_532a924a-1db0-4d6c-ba62-251efbcf9011.webp	https://cdn.shopify.com/s/files/1/1137/7574/products/e7080fe9dcd842a685b9fc38c05cdf279d2b1fb77cf152816f8d8b9fd68724de.webp|https://cdn.shopify.com/s/files/1/1137/7574/products/33557ea43a1e6dc28a82558093131f1bab5456ad2b3d11f91e0e904a69186996.webp|https://cdn.shopify.com/s/files/1/1137/7574/products/6263958fe0ce94abcb90a10ab72dfcf0c9165a37e6d6e2488baf73115fa91595.webp	<meta charset="utf-8"><meta charset="utf-8"><meta charset="utf-8"> <p><span><meta charset="utf-8">For the pampered pooch. An iron-on merit badge for dogs (or any pet). The perfect addition to a dog's bandana, jacket, or blanket. All of our merit badges are iron-on. It’s fuss free and done in minutes! Every order comes with an instruction guide on how to best apply your badge</span>.</p> <div style="padding-left: 30px;"> <ul> <li>Iron on patch</li> <li>Designed and manufactured in the UK</li> </ul> </div>	
6549870215270	39274301620326	Georgia Dog Bandana	The Foggy Dog	Scarves	26.00	FDGESCGR02		0.0	lb	[Size,S]	[Color,Green Floral]		http://www.myStore.com/products/	https://cdn.shopify.com/s/files/1/1137/7574/products/georgia-dog-bandana-from-the-foggy-dog-729627_550x550_13714785-728a-4563-9ad7-05186c253ad2.jpg		<p><meta charset="utf-8"><span data-mce-fragment="1">A vibrant rose print stands out against an emerald green background by artist Cassidy Demkov. Printed with low-impact, organic dyes on 100% GOTS-certified organic cotton sateen.</span></p> <ul> <li>Unique triangle-tie shape makes this bandana easy to tie on (no folding needed)</li> <li>100% GOTS-certified organic cotton, printed with low-impact organic dyes</li> <li>Navy blue merrow hem</li> <li>Made in the USA with love</li> <li> <meta charset="utf-8"> <span>Machine wash cold, air dry flat</span> </li> </ul> <p><span>Please measure your dog's neck to ensure a perfect fit. When in doubt, size up!</span></p> <ul> <li><span>Small: Fits necks up to 13", measures 7" top to point</span></li> <li><span>Medium: Fits necks up to 17", measures 9.5" top to point</span></li> <li><span>Large: Fits necks up to 22", measures 11.5" top to point</span></li> </ul>	
6549870215270	39274301653094	Georgia Dog Bandana	The Foggy Dog	Scarves	26.00	FDGESCGR03		0.0	lb	[Size,M]	[Color,Green Floral]		http://www.myStore.com/products/	https://cdn.shopify.com/s/files/1/1137/7574/products/georgia-dog-bandana-from-the-foggy-dog-729627_550x550_13714785-728a-4563-9ad7-05186c253ad2.jpg		<p><meta charset="utf-8"><span data-mce-fragment="1">A vibrant rose print stands out against an emerald green background by artist Cassidy Demkov. Printed with low-impact, organic dyes on 100% GOTS-certified organic cotton sateen.</span></p> <ul> <li>Unique triangle-tie shape makes this bandana easy to tie on (no folding needed)</li> <li>100% GOTS-certified organic cotton, printed with low-impact organic dyes</li> <li>Navy blue merrow hem</li> <li>Made in the USA with love</li> <li> <meta charset="utf-8"> <span>Machine wash cold, air dry flat</span> </li> </ul> <p><span>Please measure your dog's neck to ensure a perfect fit. When in doubt, size up!</span></p> <ul> <li><span>Small: Fits necks up to 13", measures 7" top to point</span></li> <li><span>Medium: Fits necks up to 17", measures 9.5" top to point</span></li> <li><span>Large: Fits necks up to 22", measures 11.5" top to point</span></li> </ul>	
6549870215270	39274301685862	Georgia Dog Bandana	The Foggy Dog	Scarves	26.00	FDGESCGR04		0.0	lb	[Size,L]	[Color,Green Floral]		http://www.myStore.com/products/	https://cdn.shopify.com/s/files/1/1137/7574/products/georgia-dog-bandana-from-the-foggy-dog-729627_550x550_13714785-728a-4563-9ad7-05186c253ad2.jpg		<p><meta charset="utf-8"><span data-mce-fragment="1">A vibrant rose print stands out against an emerald green background by artist Cassidy Demkov. Printed with low-impact, organic dyes on 100% GOTS-certified organic cotton sateen.</span></p> <ul> <li>Unique triangle-tie shape makes this bandana easy to tie on (no folding needed)</li> <li>100% GOTS-certified organic cotton, printed with low-impact organic dyes</li> <li>Navy blue merrow hem</li> <li>Made in the USA with love</li> <li> <meta charset="utf-8"> <span>Machine wash cold, air dry flat</span> </li> </ul> <p><span>Please measure your dog's neck to ensure a perfect fit. When in doubt, size up!</span></p> <ul> <li><span>Small: Fits necks up to 13", measures 7" top to point</span></li> <li><span>Medium: Fits necks up to 17", measures 9.5" top to point</span></li> <li><span>Large: Fits necks up to 22", measures 11.5" top to point</span></li> </ul>	
9446056493353	49124474159401	Green Travel Water Bottle	Springer	Bowls	20.00	SPWAEAGR99		108.0	g	[Color,Green]			http://www.myStore.com/products/	https://cdn.shopify.com/s/files/1/1137/7574/files/springer5.webp	https://cdn.shopify.com/s/files/1/1137/7574/files/springer1.webp|https://cdn.shopify.com/s/files/1/1137/7574/files/springer3.webp|https://cdn.shopify.com/s/files/1/1137/7574/files/springer2.webp	<p><span data-test-id="accordion-text" class="_1ntfbzc4 _1ntfbzc18 _1ntfbzc19 _1ntfbzc1j _1ntfbzc1r _1ntfbzc1u _1ntfbzc5 sc-43b0d28d-3 iNqSau">The perfect solution for keeping your dog hydrated on-the-go. Designed for your dog to drink fresh water from the attached bowl without wasting a drop. Simply squeeze the bottle with one hand to fill the bowl and release to drain the excess water back in. The leak-tight innovative bottle includes a carabiner for easy clipping to your backpack, bag, or leash — ideal for hikes, beach visits, road trips, and walks around the neighborhood. </span></p> <p><span data-test-id="accordion-text" class="_1ntfbzc4 _1ntfbzc18 _1ntfbzc19 _1ntfbzc1j _1ntfbzc1r _1ntfbzc1u _1ntfbzc5 sc-43b0d28d-3 iNqSau">Features: <br></span><span data-test-id="accordion-text" class="_1ntfbzc4 _1ntfbzc18 _1ntfbzc19 _1ntfbzc1j _1ntfbzc1r _1ntfbzc1u _1ntfbzc5 sc-43b0d28d-3 iNqSau">- Squeeze to hydrate &amp; release to drain <br>- Perfect for walks, runs, hikes + travel <br>- Leak-tight shut off <br>- Includes a carabiner <br>- Food Safe &amp; BPA-Free <br>- No water wasted <br>- Dishwasher safe <br></span></p> <p><span data-test-id="accordion-text" class="_1ntfbzc4 _1ntfbzc18 _1ntfbzc19 _1ntfbzc1j _1ntfbzc1r _1ntfbzc1u _1ntfbzc5 sc-43b0d28d-3 iNqSau">Specs - Holds 15oz <br>-7.5" tall x 3" bottom diameter <br>- Weighs 3.6oz  </span></p> <!---->	
9449088450857	49133413597481	Gummy Squeaky Dog Toy	Barc London	Toys	13.00	BABETOPU99	5060966441007	143.0	g	[Color,Purple]			http://www.myStore.com/products/	https://cdn.shopify.com/s/files/1/1137/7574/files/barc10.webp	https://cdn.shopify.com/s/files/1/1137/7574/files/barc6.webp|https://cdn.shopify.com/s/files/1/1137/7574/files/barc5_c41e4d4b-93e5-474c-9984-6a1b34ee32c3.webp|https://cdn.shopify.com/s/files/1/1137/7574/files/barc9.webp|https://cdn.shopify.com/s/files/1/1137/7574/files/barc7.webp|https://cdn.shopify.com/s/files/1/1137/7574/files/barc8.webp	<p data-mce-fragment="1" class=""><meta charset="utf-8"><meta charset="utf-8"><span>The Balloon Squeaky Dog Toy is shaped like a balloon animal and comes in a pastel green shade. It can be used by dogs of all ages and breeds during playtime. Your pup will enjoy the bounce on this unusually shaped dog squeaker. It offers a loud high-pitched squeak when chewed. Made from a lightweight synthetic rubber (TPR) that has good tear strength and abrasion resistance. This toy is non-toxic and won’t wear down your dog’s teeth and is available in five unique shapes. </span></p> <ul> <li data-mce-fragment="1"><span>Size: H14cm x W13.5cm <!----></span></li> <li data-mce-fragment="1"> <span>Before buying this toy, please ensure that it is suitable for your pet's preference, chewing habits, and size.</span><br> </li> </ul>	
